	.text
	.file	"bevy_ecs.3d0284e565e8495b-cgu.0"
	.section	".text.<bevy_reflect::tuple_struct::DynamicTupleStruct as bevy_reflect::tuple_struct::TupleStruct>::iter_fields","ax",@progbits
	.p2align	4, 0x90
	.type	<bevy_reflect::tuple_struct::DynamicTupleStruct as bevy_reflect::tuple_struct::TupleStruct>::iter_fields,@function
<bevy_reflect::tuple_struct::DynamicTupleStruct as bevy_reflect::tuple_struct::TupleStruct>::iter_fields:
	.cfi_startproc
	movq	%rdi, %rax
	movq	%rsi, (%rdi)
	leaq	.Lanon.f381d664011984525626c761c6d28b35.6(%rip), %rcx
	movq	%rcx, 8(%rdi)
	movq	$0, 16(%rdi)
	retq
.Lfunc_end0:
	.size	<bevy_reflect::tuple_struct::DynamicTupleStruct as bevy_reflect::tuple_struct::TupleStruct>::iter_fields, .Lfunc_end0-<bevy_reflect::tuple_struct::DynamicTupleStruct as bevy_reflect::tuple_struct::TupleStruct>::iter_fields
	.cfi_endproc

	.section	".text.<bevy_reflect::tuple_struct::DynamicTupleStruct as bevy_reflect::tuple_struct::TupleStruct>::field","ax",@progbits
	.p2align	4, 0x90
	.type	<bevy_reflect::tuple_struct::DynamicTupleStruct as bevy_reflect::tuple_struct::TupleStruct>::field,@function
<bevy_reflect::tuple_struct::DynamicTupleStruct as bevy_reflect::tuple_struct::TupleStruct>::field:
	.cfi_startproc
	cmpq	%rsi, 16(%rdi)
	jbe	.LBB1_1
	movq	8(%rdi), %rcx
	shlq	$4, %rsi
	movq	(%rcx,%rsi), %rax
	movq	8(%rcx,%rsi), %rdx
	retq
.LBB1_1:
	xorl	%eax, %eax
	retq
.Lfunc_end1:
	.size	<bevy_reflect::tuple_struct::DynamicTupleStruct as bevy_reflect::tuple_struct::TupleStruct>::field, .Lfunc_end1-<bevy_reflect::tuple_struct::DynamicTupleStruct as bevy_reflect::tuple_struct::TupleStruct>::field
	.cfi_endproc

	.section	".text.<bevy_reflect::tuple_struct::DynamicTupleStruct as bevy_reflect::tuple_struct::TupleStruct>::field_len","ax",@progbits
	.p2align	4, 0x90
	.type	<bevy_reflect::tuple_struct::DynamicTupleStruct as bevy_reflect::tuple_struct::TupleStruct>::field_len,@function
<bevy_reflect::tuple_struct::DynamicTupleStruct as bevy_reflect::tuple_struct::TupleStruct>::field_len:
	.cfi_startproc
	movq	16(%rdi), %rax
	retq
.Lfunc_end2:
	.size	<bevy_reflect::tuple_struct::DynamicTupleStruct as bevy_reflect::tuple_struct::TupleStruct>::field_len, .Lfunc_end2-<bevy_reflect::tuple_struct::DynamicTupleStruct as bevy_reflect::tuple_struct::TupleStruct>::field_len
	.cfi_endproc

	.section	".text.<bevy_reflect::tuple_struct::DynamicTupleStruct as bevy_reflect::tuple_struct::TupleStruct>::field_mut","ax",@progbits
	.p2align	4, 0x90
	.type	<bevy_reflect::tuple_struct::DynamicTupleStruct as bevy_reflect::tuple_struct::TupleStruct>::field_mut,@function
<bevy_reflect::tuple_struct::DynamicTupleStruct as bevy_reflect::tuple_struct::TupleStruct>::field_mut:
	.cfi_startproc
	cmpq	%rsi, 16(%rdi)
	jbe	.LBB3_1
	movq	8(%rdi), %rcx
	shlq	$4, %rsi
	movq	(%rcx,%rsi), %rax
	movq	8(%rcx,%rsi), %rdx
	retq
.LBB3_1:
	xorl	%eax, %eax
	retq
.Lfunc_end3:
	.size	<bevy_reflect::tuple_struct::DynamicTupleStruct as bevy_reflect::tuple_struct::TupleStruct>::field_mut, .Lfunc_end3-<bevy_reflect::tuple_struct::DynamicTupleStruct as bevy_reflect::tuple_struct::TupleStruct>::field_mut
	.cfi_endproc

	.section	".text.async_task::raw::RawTask<F,T,S,M>::drop_waker","ax",@progbits
	.p2align	4, 0x90
	.type	async_task::raw::RawTask<F,T,S,M>::drop_waker,@function
async_task::raw::RawTask<F,T,S,M>::drop_waker:
.Lfunc_begin0:
	.cfi_startproc
	.cfi_personality 155, DW.ref.rust_eh_personality
	.cfi_lsda 27, .Lexception0
	pushq	%r14
	.cfi_def_cfa_offset 16
	pushq	%rbx
	.cfi_def_cfa_offset 24
	pushq	%rax
	.cfi_def_cfa_offset 32
	.cfi_offset %rbx, -24
	.cfi_offset %r14, -16
	movq	%rdi, %rbx
	leaq	40(%rdi), %r14
	.p2align	4, 0x90
.LBB4_1:
	movq	$-256, %rax
	lock		xaddq	%rax, 8(%rbx)
	movq	%rax, %rcx
	andq	$-240, %rcx
	cmpq	$256, %rcx
	jne	.LBB4_15
	testb	$12, %al
	jne	.LBB4_8
	movq	$265, 8(%rbx)
	movl	$256, %eax
	lock		xaddq	%rax, 8(%rbx)
	testq	%rax, %rax
	js	.LBB4_16
	movq	40(%rbx), %rdi
.Ltmp8:
	movq	%rbx, %rsi
	callq	<F as async_task::runnable::Schedule<M>>::schedule
.Ltmp9:
	jmp	.LBB4_1
.LBB4_15:
	addq	$8, %rsp
	.cfi_def_cfa_offset 24
	popq	%rbx
	.cfi_def_cfa_offset 16
	popq	%r14
	.cfi_def_cfa_offset 8
	retq
.LBB4_8:
	.cfi_def_cfa_offset 32
	movq	16(%rbx), %rax
	testq	%rax, %rax
	je	.LBB4_10
	movq	24(%rbx), %rdi
.Ltmp0:
	callq	*24(%rax)
.Ltmp1:
.LBB4_10:
	movq	(%r14), %rax
	lock		decq	(%rax)
	jne	.LBB4_12
	#MEMBARRIER
.Ltmp2:
	movq	%r14, %rdi
	callq	alloc::sync::Arc<T,A>::drop_slow
.Ltmp3:
.LBB4_12:
	movl	$280, %esi
	movl	$8, %edx
	movq	%rbx, %rdi
	addq	$8, %rsp
	.cfi_def_cfa_offset 24
	popq	%rbx
	.cfi_def_cfa_offset 16
	popq	%r14
	.cfi_def_cfa_offset 8
	jmpq	*__rust_dealloc@GOTPCREL(%rip)
.LBB4_16:
	.cfi_def_cfa_offset 32
	callq	*async_task::utils::abort@GOTPCREL(%rip)
.LBB4_13:
.Ltmp4:
	movq	%rax, %r14
.Ltmp5:
	leaq	7(%rsp), %rdi
	callq	*<async_task::utils::abort_on_panic::Bomb as core::ops::drop::Drop>::drop@GOTPCREL(%rip)
.Ltmp6:
	jmp	.LBB4_6
.LBB4_14:
.Ltmp7:
	callq	*core::panicking::panic_in_cleanup@GOTPCREL(%rip)
.LBB4_5:
.Ltmp10:
	movq	%rax, %r14
.Ltmp11:
	movq	%rbx, %rdi
	callq	async_task::raw::RawTask<F,T,S,M>::drop_waker
.Ltmp12:
.LBB4_6:
	movq	%r14, %rdi
	callq	_Unwind_Resume@PLT
.LBB4_7:
.Ltmp13:
	callq	*core::panicking::panic_in_cleanup@GOTPCREL(%rip)
.Lfunc_end4:
	.size	async_task::raw::RawTask<F,T,S,M>::drop_waker, .Lfunc_end4-async_task::raw::RawTask<F,T,S,M>::drop_waker
	.cfi_endproc
	.section	".gcc_except_table.async_task::raw::RawTask<F,T,S,M>::drop_waker","a",@progbits
	.p2align	2, 0x0
GCC_except_table4:
.Lexception0:
	.byte	255
	.byte	155
	.uleb128 .Lttbase0-.Lttbaseref0
.Lttbaseref0:
	.byte	1
	.uleb128 .Lcst_end0-.Lcst_begin0
.Lcst_begin0:
	.uleb128 .Ltmp8-.Lfunc_begin0
	.uleb128 .Ltmp9-.Ltmp8
	.uleb128 .Ltmp10-.Lfunc_begin0
	.byte	0
	.uleb128 .Ltmp0-.Lfunc_begin0
	.uleb128 .Ltmp3-.Ltmp0
	.uleb128 .Ltmp4-.Lfunc_begin0
	.byte	0
	.uleb128 .Ltmp3-.Lfunc_begin0
	.uleb128 .Ltmp5-.Ltmp3
	.byte	0
	.byte	0
	.uleb128 .Ltmp5-.Lfunc_begin0
	.uleb128 .Ltmp6-.Ltmp5
	.uleb128 .Ltmp7-.Lfunc_begin0
	.byte	1
	.uleb128 .Ltmp11-.Lfunc_begin0
	.uleb128 .Ltmp12-.Ltmp11
	.uleb128 .Ltmp13-.Lfunc_begin0
	.byte	1
	.uleb128 .Ltmp12-.Lfunc_begin0
	.uleb128 .Lfunc_end4-.Ltmp12
	.byte	0
	.byte	0
.Lcst_end0:
	.byte	127
	.byte	0
	.p2align	2, 0x0
.Lttbase0:
	.byte	0
	.p2align	2, 0x0

	.section	".text.async_task::raw::RawTask<F,T,S,M>::drop_waker","ax",@progbits
	.p2align	4, 0x90
	.type	async_task::raw::RawTask<F,T,S,M>::drop_waker,@function
async_task::raw::RawTask<F,T,S,M>::drop_waker:
.Lfunc_begin1:
	.cfi_startproc
	.cfi_personality 155, DW.ref.rust_eh_personality
	.cfi_lsda 27, .Lexception1
	pushq	%r14
	.cfi_def_cfa_offset 16
	pushq	%rbx
	.cfi_def_cfa_offset 24
	pushq	%rax
	.cfi_def_cfa_offset 32
	.cfi_offset %rbx, -24
	.cfi_offset %r14, -16
	movq	%rdi, %rbx
	leaq	40(%rdi), %r14
	.p2align	4, 0x90
.LBB5_1:
	movq	$-256, %rax
	lock		xaddq	%rax, 8(%rbx)
	movq	%rax, %rcx
	andq	$-240, %rcx
	cmpq	$256, %rcx
	jne	.LBB5_15
	testb	$12, %al
	jne	.LBB5_8
	movq	$265, 8(%rbx)
	movl	$256, %eax
	lock		xaddq	%rax, 8(%rbx)
	testq	%rax, %rax
	js	.LBB5_16
	movq	40(%rbx), %rdi
.Ltmp22:
	movq	%rbx, %rsi
	callq	<F as async_task::runnable::Schedule<M>>::schedule
.Ltmp23:
	jmp	.LBB5_1
.LBB5_15:
	addq	$8, %rsp
	.cfi_def_cfa_offset 24
	popq	%rbx
	.cfi_def_cfa_offset 16
	popq	%r14
	.cfi_def_cfa_offset 8
	retq
.LBB5_8:
	.cfi_def_cfa_offset 32
	movq	16(%rbx), %rax
	testq	%rax, %rax
	je	.LBB5_10
	movq	24(%rbx), %rdi
.Ltmp14:
	callq	*24(%rax)
.Ltmp15:
.LBB5_10:
	movq	(%r14), %rax
	lock		decq	(%rax)
	jne	.LBB5_12
	#MEMBARRIER
.Ltmp16:
	movq	%r14, %rdi
	callq	alloc::sync::Arc<T,A>::drop_slow
.Ltmp17:
.LBB5_12:
	movl	$408, %esi
	movl	$8, %edx
	movq	%rbx, %rdi
	addq	$8, %rsp
	.cfi_def_cfa_offset 24
	popq	%rbx
	.cfi_def_cfa_offset 16
	popq	%r14
	.cfi_def_cfa_offset 8
	jmpq	*__rust_dealloc@GOTPCREL(%rip)
.LBB5_16:
	.cfi_def_cfa_offset 32
	callq	*async_task::utils::abort@GOTPCREL(%rip)
.LBB5_13:
.Ltmp18:
	movq	%rax, %r14
.Ltmp19:
	leaq	7(%rsp), %rdi
	callq	*<async_task::utils::abort_on_panic::Bomb as core::ops::drop::Drop>::drop@GOTPCREL(%rip)
.Ltmp20:
	jmp	.LBB5_6
.LBB5_14:
.Ltmp21:
	callq	*core::panicking::panic_in_cleanup@GOTPCREL(%rip)
.LBB5_5:
.Ltmp24:
	movq	%rax, %r14
.Ltmp25:
	movq	%rbx, %rdi
	callq	async_task::raw::RawTask<F,T,S,M>::drop_waker
.Ltmp26:
.LBB5_6:
	movq	%r14, %rdi
	callq	_Unwind_Resume@PLT
.LBB5_7:
.Ltmp27:
	callq	*core::panicking::panic_in_cleanup@GOTPCREL(%rip)
.Lfunc_end5:
	.size	async_task::raw::RawTask<F,T,S,M>::drop_waker, .Lfunc_end5-async_task::raw::RawTask<F,T,S,M>::drop_waker
	.cfi_endproc
	.section	".gcc_except_table.async_task::raw::RawTask<F,T,S,M>::drop_waker","a",@progbits
	.p2align	2, 0x0
GCC_except_table5:
.Lexception1:
	.byte	255
	.byte	155
	.uleb128 .Lttbase1-.Lttbaseref1
.Lttbaseref1:
	.byte	1
	.uleb128 .Lcst_end1-.Lcst_begin1
.Lcst_begin1:
	.uleb128 .Ltmp22-.Lfunc_begin1
	.uleb128 .Ltmp23-.Ltmp22
	.uleb128 .Ltmp24-.Lfunc_begin1
	.byte	0
	.uleb128 .Ltmp14-.Lfunc_begin1
	.uleb128 .Ltmp17-.Ltmp14
	.uleb128 .Ltmp18-.Lfunc_begin1
	.byte	0
	.uleb128 .Ltmp17-.Lfunc_begin1
	.uleb128 .Ltmp19-.Ltmp17
	.byte	0
	.byte	0
	.uleb128 .Ltmp19-.Lfunc_begin1
	.uleb128 .Ltmp20-.Ltmp19
	.uleb128 .Ltmp21-.Lfunc_begin1
	.byte	1
	.uleb128 .Ltmp25-.Lfunc_begin1
	.uleb128 .Ltmp26-.Ltmp25
	.uleb128 .Ltmp27-.Lfunc_begin1
	.byte	1
	.uleb128 .Ltmp26-.Lfunc_begin1
	.uleb128 .Lfunc_end5-.Ltmp26
	.byte	0
	.byte	0
.Lcst_end1:
	.byte	127
	.byte	0
	.p2align	2, 0x0
.Lttbase1:
	.byte	0
	.p2align	2, 0x0

	.section	".text.async_task::raw::RawTask<F,T,S,M>::drop_waker","ax",@progbits
	.p2align	4, 0x90
	.type	async_task::raw::RawTask<F,T,S,M>::drop_waker,@function
async_task::raw::RawTask<F,T,S,M>::drop_waker:
.Lfunc_begin2:
	.cfi_startproc
	.cfi_personality 155, DW.ref.rust_eh_personality
	.cfi_lsda 27, .Lexception2
	pushq	%r14
	.cfi_def_cfa_offset 16
	pushq	%rbx
	.cfi_def_cfa_offset 24
	pushq	%rax
	.cfi_def_cfa_offset 32
	.cfi_offset %rbx, -24
	.cfi_offset %r14, -16
	movq	%rdi, %rbx
	leaq	40(%rdi), %r14
	.p2align	4, 0x90
.LBB6_1:
	movq	$-256, %rax
	lock		xaddq	%rax, 8(%rbx)
	movq	%rax, %rcx
	andq	$-240, %rcx
	cmpq	$256, %rcx
	jne	.LBB6_15
	testb	$12, %al
	jne	.LBB6_8
	movq	$265, 8(%rbx)
	movl	$256, %eax
	lock		xaddq	%rax, 8(%rbx)
	testq	%rax, %rax
	js	.LBB6_16
	movq	40(%rbx), %rdi
.Ltmp36:
	movq	%rbx, %rsi
	callq	<F as async_task::runnable::Schedule<M>>::schedule
.Ltmp37:
	jmp	.LBB6_1
.LBB6_15:
	addq	$8, %rsp
	.cfi_def_cfa_offset 24
	popq	%rbx
	.cfi_def_cfa_offset 16
	popq	%r14
	.cfi_def_cfa_offset 8
	retq
.LBB6_8:
	.cfi_def_cfa_offset 32
	movq	16(%rbx), %rax
	testq	%rax, %rax
	je	.LBB6_10
	movq	24(%rbx), %rdi
.Ltmp28:
	callq	*24(%rax)
.Ltmp29:
.LBB6_10:
	movq	(%r14), %rax
	lock		decq	(%rax)
	jne	.LBB6_12
	#MEMBARRIER
.Ltmp30:
	movq	%r14, %rdi
	callq	alloc::sync::Arc<T,A>::drop_slow
.Ltmp31:
.LBB6_12:
	movl	$312, %esi
	movl	$8, %edx
	movq	%rbx, %rdi
	addq	$8, %rsp
	.cfi_def_cfa_offset 24
	popq	%rbx
	.cfi_def_cfa_offset 16
	popq	%r14
	.cfi_def_cfa_offset 8
	jmpq	*__rust_dealloc@GOTPCREL(%rip)
.LBB6_16:
	.cfi_def_cfa_offset 32
	callq	*async_task::utils::abort@GOTPCREL(%rip)
.LBB6_13:
.Ltmp32:
	movq	%rax, %r14
.Ltmp33:
	leaq	7(%rsp), %rdi
	callq	*<async_task::utils::abort_on_panic::Bomb as core::ops::drop::Drop>::drop@GOTPCREL(%rip)
.Ltmp34:
	jmp	.LBB6_6
.LBB6_14:
.Ltmp35:
	callq	*core::panicking::panic_in_cleanup@GOTPCREL(%rip)
.LBB6_5:
.Ltmp38:
	movq	%rax, %r14
.Ltmp39:
	movq	%rbx, %rdi
	callq	async_task::raw::RawTask<F,T,S,M>::drop_waker
.Ltmp40:
.LBB6_6:
	movq	%r14, %rdi
	callq	_Unwind_Resume@PLT
.LBB6_7:
.Ltmp41:
	callq	*core::panicking::panic_in_cleanup@GOTPCREL(%rip)
.Lfunc_end6:
	.size	async_task::raw::RawTask<F,T,S,M>::drop_waker, .Lfunc_end6-async_task::raw::RawTask<F,T,S,M>::drop_waker
	.cfi_endproc
	.section	".gcc_except_table.async_task::raw::RawTask<F,T,S,M>::drop_waker","a",@progbits
	.p2align	2, 0x0
GCC_except_table6:
.Lexception2:
	.byte	255
	.byte	155
	.uleb128 .Lttbase2-.Lttbaseref2
.Lttbaseref2:
	.byte	1
	.uleb128 .Lcst_end2-.Lcst_begin2
.Lcst_begin2:
	.uleb128 .Ltmp36-.Lfunc_begin2
	.uleb128 .Ltmp37-.Ltmp36
	.uleb128 .Ltmp38-.Lfunc_begin2
	.byte	0
	.uleb128 .Ltmp28-.Lfunc_begin2
	.uleb128 .Ltmp31-.Ltmp28
	.uleb128 .Ltmp32-.Lfunc_begin2
	.byte	0
	.uleb128 .Ltmp31-.Lfunc_begin2
	.uleb128 .Ltmp33-.Ltmp31
	.byte	0
	.byte	0
	.uleb128 .Ltmp33-.Lfunc_begin2
	.uleb128 .Ltmp34-.Ltmp33
	.uleb128 .Ltmp35-.Lfunc_begin2
	.byte	1
	.uleb128 .Ltmp39-.Lfunc_begin2
	.uleb128 .Ltmp40-.Ltmp39
	.uleb128 .Ltmp41-.Lfunc_begin2
	.byte	1
	.uleb128 .Ltmp40-.Lfunc_begin2
	.uleb128 .Lfunc_end6-.Ltmp40
	.byte	0
	.byte	0
.Lcst_end2:
	.byte	127
	.byte	0
	.p2align	2, 0x0
.Lttbase2:
	.byte	0
	.p2align	2, 0x0

	.section	".text.async_task::raw::RawTask<F,T,S,M>::get_output","ax",@progbits
	.p2align	4, 0x90
	.type	async_task::raw::RawTask<F,T,S,M>::get_output,@function
async_task::raw::RawTask<F,T,S,M>::get_output:
	.cfi_startproc
	leaq	48(%rdi), %rax
	retq
.Lfunc_end7:
	.size	async_task::raw::RawTask<F,T,S,M>::get_output, .Lfunc_end7-async_task::raw::RawTask<F,T,S,M>::get_output
	.cfi_endproc

	.section	".text.async_task::raw::RawTask<F,T,S,M>::get_output","ax",@progbits
	.p2align	4, 0x90
	.type	async_task::raw::RawTask<F,T,S,M>::get_output,@function
async_task::raw::RawTask<F,T,S,M>::get_output:
	.cfi_startproc
	leaq	48(%rdi), %rax
	retq
.Lfunc_end8:
	.size	async_task::raw::RawTask<F,T,S,M>::get_output, .Lfunc_end8-async_task::raw::RawTask<F,T,S,M>::get_output
	.cfi_endproc

	.section	".text.async_task::raw::RawTask<F,T,S,M>::get_output","ax",@progbits
	.p2align	4, 0x90
	.type	async_task::raw::RawTask<F,T,S,M>::get_output,@function
async_task::raw::RawTask<F,T,S,M>::get_output:
	.cfi_startproc
	leaq	48(%rdi), %rax
	retq
.Lfunc_end9:
	.size	async_task::raw::RawTask<F,T,S,M>::get_output, .Lfunc_end9-async_task::raw::RawTask<F,T,S,M>::get_output
	.cfi_endproc

	.section	".text.async_task::raw::RawTask<F,T,S,M>::clone_waker","ax",@progbits
	.p2align	4, 0x90
	.type	async_task::raw::RawTask<F,T,S,M>::clone_waker,@function
async_task::raw::RawTask<F,T,S,M>::clone_waker:
	.cfi_startproc
	movl	$256, %eax
	lock		xaddq	%rax, 8(%rdi)
	testq	%rax, %rax
	js	.LBB10_2
	leaq	.Lanon.f381d664011984525626c761c6d28b35.12(%rip), %rax
	movq	%rdi, %rdx
	retq
.LBB10_2:
	pushq	%rax
	.cfi_def_cfa_offset 16
	callq	*async_task::utils::abort@GOTPCREL(%rip)
.Lfunc_end10:
	.size	async_task::raw::RawTask<F,T,S,M>::clone_waker, .Lfunc_end10-async_task::raw::RawTask<F,T,S,M>::clone_waker
	.cfi_endproc

	.section	".text.async_task::raw::RawTask<F,T,S,M>::clone_waker","ax",@progbits
	.p2align	4, 0x90
	.type	async_task::raw::RawTask<F,T,S,M>::clone_waker,@function
async_task::raw::RawTask<F,T,S,M>::clone_waker:
	.cfi_startproc
	movl	$256, %eax
	lock		xaddq	%rax, 8(%rdi)
	testq	%rax, %rax
	js	.LBB11_2
	leaq	.Lanon.f381d664011984525626c761c6d28b35.13(%rip), %rax
	movq	%rdi, %rdx
	retq
.LBB11_2:
	pushq	%rax
	.cfi_def_cfa_offset 16
	callq	*async_task::utils::abort@GOTPCREL(%rip)
.Lfunc_end11:
	.size	async_task::raw::RawTask<F,T,S,M>::clone_waker, .Lfunc_end11-async_task::raw::RawTask<F,T,S,M>::clone_waker
	.cfi_endproc

	.section	".text.async_task::raw::RawTask<F,T,S,M>::clone_waker","ax",@progbits
	.p2align	4, 0x90
	.type	async_task::raw::RawTask<F,T,S,M>::clone_waker,@function
async_task::raw::RawTask<F,T,S,M>::clone_waker:
	.cfi_startproc
	movl	$256, %eax
	lock		xaddq	%rax, 8(%rdi)
	testq	%rax, %rax
	js	.LBB12_2
	leaq	.Lanon.f381d664011984525626c761c6d28b35.14(%rip), %rax
	movq	%rdi, %rdx
	retq
.LBB12_2:
	pushq	%rax
	.cfi_def_cfa_offset 16
	callq	*async_task::utils::abort@GOTPCREL(%rip)
.Lfunc_end12:
	.size	async_task::raw::RawTask<F,T,S,M>::clone_waker, .Lfunc_end12-async_task::raw::RawTask<F,T,S,M>::clone_waker
	.cfi_endproc

	.section	".text.async_task::raw::RawTask<F,T,S,M>::drop_future","ax",@progbits
	.p2align	4, 0x90
	.type	async_task::raw::RawTask<F,T,S,M>::drop_future,@function
async_task::raw::RawTask<F,T,S,M>::drop_future:
.Lfunc_begin3:
	.cfi_startproc
	.cfi_personality 155, DW.ref.rust_eh_personality
	.cfi_lsda 27, .Lexception3
	pushq	%rbx
	.cfi_def_cfa_offset 16
	subq	$16, %rsp
	.cfi_def_cfa_offset 32
	.cfi_offset %rbx, -16
	addq	$48, %rdi
.Ltmp42:
	callq	core::ptr::drop_in_place<async_executor::LocalExecutor::spawn<(),bevy_tasks::single_threaded_task_pool::Scope<()>::spawn_on_scope<bevy_ecs::schedule::executor::multi_threaded::ExecutorState::spawn_exclusive_system_task::{{closure}}>::{{closure}}>::{{closure}}>
.Ltmp43:
	addq	$16, %rsp
	.cfi_def_cfa_offset 16
	popq	%rbx
	.cfi_def_cfa_offset 8
	retq
.LBB13_2:
	.cfi_def_cfa_offset 32
.Ltmp44:
	movq	%rax, %rbx
.Ltmp45:
	leaq	15(%rsp), %rdi
	callq	*<async_task::utils::abort_on_panic::Bomb as core::ops::drop::Drop>::drop@GOTPCREL(%rip)
.Ltmp46:
	movq	%rbx, %rdi
	callq	_Unwind_Resume@PLT
.LBB13_4:
.Ltmp47:
	callq	*core::panicking::panic_in_cleanup@GOTPCREL(%rip)
.Lfunc_end13:
	.size	async_task::raw::RawTask<F,T,S,M>::drop_future, .Lfunc_end13-async_task::raw::RawTask<F,T,S,M>::drop_future
	.cfi_endproc
	.section	".gcc_except_table.async_task::raw::RawTask<F,T,S,M>::drop_future","a",@progbits
	.p2align	2, 0x0
GCC_except_table13:
.Lexception3:
	.byte	255
	.byte	155
	.uleb128 .Lttbase3-.Lttbaseref3
.Lttbaseref3:
	.byte	1
	.uleb128 .Lcst_end3-.Lcst_begin3
.Lcst_begin3:
	.uleb128 .Ltmp42-.Lfunc_begin3
	.uleb128 .Ltmp43-.Ltmp42
	.uleb128 .Ltmp44-.Lfunc_begin3
	.byte	0
	.uleb128 .Ltmp45-.Lfunc_begin3
	.uleb128 .Ltmp46-.Ltmp45
	.uleb128 .Ltmp47-.Lfunc_begin3
	.byte	1
	.uleb128 .Ltmp46-.Lfunc_begin3
	.uleb128 .Lfunc_end13-.Ltmp46
	.byte	0
	.byte	0
.Lcst_end3:
	.byte	127
	.byte	0
	.p2align	2, 0x0
.Lttbase3:
	.byte	0
	.p2align	2, 0x0

	.section	".text.async_task::raw::RawTask<F,T,S,M>::drop_future","ax",@progbits
	.p2align	4, 0x90
	.type	async_task::raw::RawTask<F,T,S,M>::drop_future,@function
async_task::raw::RawTask<F,T,S,M>::drop_future:
.Lfunc_begin4:
	.cfi_startproc
	.cfi_personality 155, DW.ref.rust_eh_personality
	.cfi_lsda 27, .Lexception4
	pushq	%rbx
	.cfi_def_cfa_offset 16
	subq	$16, %rsp
	.cfi_def_cfa_offset 32
	.cfi_offset %rbx, -16
	addq	$48, %rdi
.Ltmp48:
	callq	core::ptr::drop_in_place<async_executor::LocalExecutor::spawn<(),bevy_tasks::single_threaded_task_pool::Scope<()>::spawn_on_scope<bevy_ecs::schedule::executor::multi_threaded::ExecutorState::spawn_system_task::{{closure}}>::{{closure}}>::{{closure}}>
.Ltmp49:
	addq	$16, %rsp
	.cfi_def_cfa_offset 16
	popq	%rbx
	.cfi_def_cfa_offset 8
	retq
.LBB14_2:
	.cfi_def_cfa_offset 32
.Ltmp50:
	movq	%rax, %rbx
.Ltmp51:
	leaq	15(%rsp), %rdi
	callq	*<async_task::utils::abort_on_panic::Bomb as core::ops::drop::Drop>::drop@GOTPCREL(%rip)
.Ltmp52:
	movq	%rbx, %rdi
	callq	_Unwind_Resume@PLT
.LBB14_4:
.Ltmp53:
	callq	*core::panicking::panic_in_cleanup@GOTPCREL(%rip)
.Lfunc_end14:
	.size	async_task::raw::RawTask<F,T,S,M>::drop_future, .Lfunc_end14-async_task::raw::RawTask<F,T,S,M>::drop_future
	.cfi_endproc
	.section	".gcc_except_table.async_task::raw::RawTask<F,T,S,M>::drop_future","a",@progbits
	.p2align	2, 0x0
GCC_except_table14:
.Lexception4:
	.byte	255
	.byte	155
	.uleb128 .Lttbase4-.Lttbaseref4
.Lttbaseref4:
	.byte	1
	.uleb128 .Lcst_end4-.Lcst_begin4
.Lcst_begin4:
	.uleb128 .Ltmp48-.Lfunc_begin4
	.uleb128 .Ltmp49-.Ltmp48
	.uleb128 .Ltmp50-.Lfunc_begin4
	.byte	0
	.uleb128 .Ltmp51-.Lfunc_begin4
	.uleb128 .Ltmp52-.Ltmp51
	.uleb128 .Ltmp53-.Lfunc_begin4
	.byte	1
	.uleb128 .Ltmp52-.Lfunc_begin4
	.uleb128 .Lfunc_end14-.Ltmp52
	.byte	0
	.byte	0
.Lcst_end4:
	.byte	127
	.byte	0
	.p2align	2, 0x0
.Lttbase4:
	.byte	0
	.p2align	2, 0x0

	.section	".text.async_task::raw::RawTask<F,T,S,M>::drop_future","ax",@progbits
	.p2align	4, 0x90
	.type	async_task::raw::RawTask<F,T,S,M>::drop_future,@function
async_task::raw::RawTask<F,T,S,M>::drop_future:
.Lfunc_begin5:
	.cfi_startproc
	.cfi_personality 155, DW.ref.rust_eh_personality
	.cfi_lsda 27, .Lexception5
	pushq	%rbx
	.cfi_def_cfa_offset 16
	subq	$16, %rsp
	.cfi_def_cfa_offset 32
	.cfi_offset %rbx, -16
	addq	$48, %rdi
.Ltmp54:
	callq	core::ptr::drop_in_place<async_executor::LocalExecutor::spawn<(),bevy_tasks::single_threaded_task_pool::Scope<()>::spawn_on_scope<bevy_ecs::schedule::executor::multi_threaded::ExecutorState::spawn_exclusive_system_task::{{closure}}>::{{closure}}>::{{closure}}>
.Ltmp55:
	addq	$16, %rsp
	.cfi_def_cfa_offset 16
	popq	%rbx
	.cfi_def_cfa_offset 8
	retq
.LBB15_2:
	.cfi_def_cfa_offset 32
.Ltmp56:
	movq	%rax, %rbx
.Ltmp57:
	leaq	15(%rsp), %rdi
	callq	*<async_task::utils::abort_on_panic::Bomb as core::ops::drop::Drop>::drop@GOTPCREL(%rip)
.Ltmp58:
	movq	%rbx, %rdi
	callq	_Unwind_Resume@PLT
.LBB15_4:
.Ltmp59:
	callq	*core::panicking::panic_in_cleanup@GOTPCREL(%rip)
.Lfunc_end15:
	.size	async_task::raw::RawTask<F,T,S,M>::drop_future, .Lfunc_end15-async_task::raw::RawTask<F,T,S,M>::drop_future
	.cfi_endproc
	.section	".gcc_except_table.async_task::raw::RawTask<F,T,S,M>::drop_future","a",@progbits
	.p2align	2, 0x0
GCC_except_table15:
.Lexception5:
	.byte	255
	.byte	155
	.uleb128 .Lttbase5-.Lttbaseref5
.Lttbaseref5:
	.byte	1
	.uleb128 .Lcst_end5-.Lcst_begin5
.Lcst_begin5:
	.uleb128 .Ltmp54-.Lfunc_begin5
	.uleb128 .Ltmp55-.Ltmp54
	.uleb128 .Ltmp56-.Lfunc_begin5
	.byte	0
	.uleb128 .Ltmp57-.Lfunc_begin5
	.uleb128 .Ltmp58-.Ltmp57
	.uleb128 .Ltmp59-.Lfunc_begin5
	.byte	1
	.uleb128 .Ltmp58-.Lfunc_begin5
	.uleb128 .Lfunc_end15-.Ltmp58
	.byte	0
	.byte	0
.Lcst_end5:
	.byte	127
	.byte	0
	.p2align	2, 0x0
.Lttbase5:
	.byte	0
	.p2align	2, 0x0

	.section	".text.async_task::raw::RawTask<F,T,S,M>::wake_by_ref","ax",@progbits
	.p2align	4, 0x90
	.type	async_task::raw::RawTask<F,T,S,M>::wake_by_ref,@function
async_task::raw::RawTask<F,T,S,M>::wake_by_ref:
	.cfi_startproc
	movq	8(%rdi), %rcx
	testb	$12, %cl
	je	.LBB16_1
.LBB16_6:
	retq
.LBB16_1:
	movq	%rdi, %rsi
	jmp	.LBB16_2
	.p2align	4, 0x90
.LBB16_3:
	orq	$1, %rax
	leaq	256(%rax), %rdx
	testb	$2, %cl
	cmovneq	%rax, %rdx
	movq	%rcx, %rax
	lock		cmpxchgq	%rdx, 8(%rsi)
	je	.LBB16_7
.LBB16_4:
	movq	%rax, %rcx
	testb	$12, %cl
	jne	.LBB16_6
.LBB16_2:
	movq	%rcx, %rax
	testb	$1, %cl
	je	.LBB16_3
	lock		cmpxchgq	%rcx, 8(%rsi)
	jne	.LBB16_4
	jmp	.LBB16_6
.LBB16_7:
	testb	$2, %cl
	jne	.LBB16_6
	testq	%rcx, %rcx
	js	.LBB16_9
	movq	40(%rsi), %rdi
	jmp	<F as async_task::runnable::Schedule<M>>::schedule
.LBB16_9:
	pushq	%rax
	.cfi_def_cfa_offset 16
	callq	*async_task::utils::abort@GOTPCREL(%rip)
.Lfunc_end16:
	.size	async_task::raw::RawTask<F,T,S,M>::wake_by_ref, .Lfunc_end16-async_task::raw::RawTask<F,T,S,M>::wake_by_ref
	.cfi_endproc

	.section	".text.async_task::raw::RawTask<F,T,S,M>::wake_by_ref","ax",@progbits
	.p2align	4, 0x90
	.type	async_task::raw::RawTask<F,T,S,M>::wake_by_ref,@function
async_task::raw::RawTask<F,T,S,M>::wake_by_ref:
	.cfi_startproc
	movq	8(%rdi), %rcx
	testb	$12, %cl
	je	.LBB17_1
.LBB17_6:
	retq
.LBB17_1:
	movq	%rdi, %rsi
	jmp	.LBB17_2
	.p2align	4, 0x90
.LBB17_3:
	orq	$1, %rax
	leaq	256(%rax), %rdx
	testb	$2, %cl
	cmovneq	%rax, %rdx
	movq	%rcx, %rax
	lock		cmpxchgq	%rdx, 8(%rsi)
	je	.LBB17_7
.LBB17_4:
	movq	%rax, %rcx
	testb	$12, %cl
	jne	.LBB17_6
.LBB17_2:
	movq	%rcx, %rax
	testb	$1, %cl
	je	.LBB17_3
	lock		cmpxchgq	%rcx, 8(%rsi)
	jne	.LBB17_4
	jmp	.LBB17_6
.LBB17_7:
	testb	$2, %cl
	jne	.LBB17_6
	testq	%rcx, %rcx
	js	.LBB17_9
	movq	40(%rsi), %rdi
	jmp	<F as async_task::runnable::Schedule<M>>::schedule
.LBB17_9:
	pushq	%rax
	.cfi_def_cfa_offset 16
	callq	*async_task::utils::abort@GOTPCREL(%rip)
.Lfunc_end17:
	.size	async_task::raw::RawTask<F,T,S,M>::wake_by_ref, .Lfunc_end17-async_task::raw::RawTask<F,T,S,M>::wake_by_ref
	.cfi_endproc

	.section	".text.async_task::raw::RawTask<F,T,S,M>::wake_by_ref","ax",@progbits
	.p2align	4, 0x90
	.type	async_task::raw::RawTask<F,T,S,M>::wake_by_ref,@function
async_task::raw::RawTask<F,T,S,M>::wake_by_ref:
	.cfi_startproc
	movq	8(%rdi), %rcx
	testb	$12, %cl
	je	.LBB18_1
.LBB18_6:
	retq
.LBB18_1:
	movq	%rdi, %rsi
	jmp	.LBB18_2
	.p2align	4, 0x90
.LBB18_3:
	orq	$1, %rax
	leaq	256(%rax), %rdx
	testb	$2, %cl
	cmovneq	%rax, %rdx
	movq	%rcx, %rax
	lock		cmpxchgq	%rdx, 8(%rsi)
	je	.LBB18_7
.LBB18_4:
	movq	%rax, %rcx
	testb	$12, %cl
	jne	.LBB18_6
.LBB18_2:
	movq	%rcx, %rax
	testb	$1, %cl
	je	.LBB18_3
	lock		cmpxchgq	%rcx, 8(%rsi)
	jne	.LBB18_4
	jmp	.LBB18_6
.LBB18_7:
	testb	$2, %cl
	jne	.LBB18_6
	testq	%rcx, %rcx
	js	.LBB18_9
	movq	40(%rsi), %rdi
	jmp	<F as async_task::runnable::Schedule<M>>::schedule
.LBB18_9:
	pushq	%rax
	.cfi_def_cfa_offset 16
	callq	*async_task::utils::abort@GOTPCREL(%rip)
.Lfunc_end18:
	.size	async_task::raw::RawTask<F,T,S,M>::wake_by_ref, .Lfunc_end18-async_task::raw::RawTask<F,T,S,M>::wake_by_ref
	.cfi_endproc

	.section	".text.async_task::raw::RawTask<F,T,S,M>::run","ax",@progbits
	.p2align	4, 0x90
	.type	async_task::raw::RawTask<F,T,S,M>::run,@function
async_task::raw::RawTask<F,T,S,M>::run:
.Lfunc_begin6:
	.cfi_startproc
	.cfi_personality 155, DW.ref.rust_eh_personality
	.cfi_lsda 27, .Lexception6
	pushq	%rbp
	.cfi_def_cfa_offset 16
	pushq	%r15
	.cfi_def_cfa_offset 24
	pushq	%r14
	.cfi_def_cfa_offset 32
	pushq	%r13
	.cfi_def_cfa_offset 40
	pushq	%r12
	.cfi_def_cfa_offset 48
	pushq	%rbx
	.cfi_def_cfa_offset 56
	subq	$40, %rsp
	.cfi_def_cfa_offset 96
	.cfi_offset %rbx, -56
	.cfi_offset %r12, -48
	.cfi_offset %r13, -40
	.cfi_offset %r14, -32
	.cfi_offset %r15, -24
	.cfi_offset %rbp, -16
	movq	%rdi, %rbx
	leaq	40(%rdi), %r14
	leaq	48(%rdi), %r12
	movq	8(%rdi), %rax
	.p2align	4, 0x90
.LBB19_1:
	testb	$8, %al
	jne	.LBB19_9
	movq	%rax, %r15
	andq	$-4, %r15
	orq	$2, %r15
	lock		cmpxchgq	%r15, 8(%rbx)
	jne	.LBB19_1
	movq	%rbx, 8(%rsp)
	movq	%r14, 16(%rsp)
	movq	%r12, 24(%rsp)
	movq	%r12, 32(%rsp)
	cmpb	$0, 32(%rbx)
	je	.LBB19_4
.Ltmp82:
	movq	%r12, %rdi
	callq	async_executor::LocalExecutor::spawn::{{closure}}
.Ltmp83:
	xorl	%r13d, %r13d
	xorl	%ebp, %ebp
	jmp	.LBB19_19
.LBB19_9:
.Ltmp60:
	movq	%r12, %rdi
	callq	core::ptr::drop_in_place<async_executor::LocalExecutor::spawn<(),bevy_tasks::single_threaded_task_pool::Scope<()>::spawn_on_scope<bevy_ecs::schedule::executor::multi_threaded::ExecutorState::spawn_exclusive_system_task::{{closure}}>::{{closure}}>::{{closure}}>
.Ltmp61:
	movq	8(%rbx), %rax
	.p2align	4, 0x90
.LBB19_11:
	movq	%rax, %rcx
	andq	$-2, %rcx
	lock		cmpxchgq	%rcx, 8(%rbx)
	jne	.LBB19_11
	testb	$32, %al
	je	.LBB19_13
	movq	8(%rbx), %rax
	.p2align	4, 0x90
.LBB19_56:
	movq	%rax, %rcx
	orq	$128, %rcx
	lock		cmpxchgq	%rcx, 8(%rbx)
	jne	.LBB19_56
	testb	$-64, %al
	je	.LBB19_58
.LBB19_13:
	xorl	%r12d, %r12d
.LBB19_59:
	movq	$-256, %rax
	lock		xaddq	%rax, 8(%rbx)
	andq	$-240, %rax
	cmpq	$256, %rax
	jne	.LBB19_65
	movq	16(%rbx), %rax
	testq	%rax, %rax
	je	.LBB19_62
	movq	24(%rbx), %rdi
.Ltmp66:
	callq	*24(%rax)
.Ltmp67:
.LBB19_62:
	movq	(%r14), %rax
	lock		decq	(%rax)
	jne	.LBB19_64
	#MEMBARRIER
.Ltmp68:
	movq	%r14, %rdi
	callq	alloc::sync::Arc<T,A>::drop_slow
.Ltmp69:
.LBB19_64:
	movl	$408, %esi
	movl	$8, %edx
	movq	%rbx, %rdi
	callq	*__rust_dealloc@GOTPCREL(%rip)
.LBB19_65:
	testq	%r12, %r12
	je	.LBB19_45
.Ltmp76:
	movq	%r15, %rdi
	callq	*8(%r12)
.Ltmp77:
	jmp	.LBB19_45
.LBB19_4:
.Ltmp88:
	movq	%r12, %rdi
	callq	async_executor::LocalExecutor::spawn::{{closure}}
.Ltmp89:
	xorl	%ebp, %ebp
.LBB19_19:
.Ltmp93:
	movq	%r12, %rdi
	callq	core::ptr::drop_in_place<async_executor::LocalExecutor::spawn<(),bevy_tasks::single_threaded_task_pool::Scope<()>::spawn_on_scope<bevy_ecs::schedule::executor::multi_threaded::ExecutorState::spawn_exclusive_system_task::{{closure}}>::{{closure}}>::{{closure}}>
.Ltmp94:
	movq	%rbp, 48(%rbx)
	movq	%r13, 56(%rbx)
	.p2align	4, 0x90
.LBB19_21:
	movq	%r15, %r12
	movq	%r15, %rax
	andq	$-16, %rax
	orq	$12, %rax
	movq	%r15, %rcx
	andq	$-8, %rcx
	orq	$4, %rcx
	testb	$16, %r12b
	cmoveq	%rax, %rcx
	movq	%r15, %rax
	lock		cmpxchgq	%rcx, 8(%rbx)
	movq	%rax, %r15
	jne	.LBB19_21
	movl	%r12d, %eax
	andl	$24, %eax
	cmpl	$16, %eax
	je	.LBB19_27
	movq	48(%rbx), %r15
	testq	%r15, %r15
	je	.LBB19_27
	movq	56(%rbx), %r13
.Ltmp101:
	movq	%r15, %rdi
	callq	*(%r13)
.Ltmp102:
	movq	8(%r13), %rsi
	testq	%rsi, %rsi
	je	.LBB19_27
	movq	16(%r13), %rdx
	movq	%r15, %rdi
	callq	*__rust_dealloc@GOTPCREL(%rip)
.LBB19_27:
	testb	$32, %r12b
	je	.LBB19_28
	movq	8(%rbx), %rax
	.p2align	4, 0x90
.LBB19_34:
	movq	%rax, %rcx
	orq	$128, %rcx
	lock		cmpxchgq	%rcx, 8(%rbx)
	jne	.LBB19_34
	testb	$-64, %al
	je	.LBB19_36
.LBB19_28:
	xorl	%r12d, %r12d
.LBB19_37:
	movq	$-256, %rax
	lock		xaddq	%rax, 8(%rbx)
	andq	$-240, %rax
	cmpq	$256, %rax
	jne	.LBB19_43
	movq	16(%rbx), %rax
	testq	%rax, %rax
	je	.LBB19_40
	movq	24(%rbx), %rdi
.Ltmp107:
	callq	*24(%rax)
.Ltmp108:
.LBB19_40:
	movq	(%r14), %rax
	lock		decq	(%rax)
	jne	.LBB19_42
	#MEMBARRIER
.Ltmp109:
	movq	%r14, %rdi
	callq	alloc::sync::Arc<T,A>::drop_slow
.Ltmp110:
.LBB19_42:
	movl	$408, %esi
	movl	$8, %edx
	movq	%rbx, %rdi
	callq	*__rust_dealloc@GOTPCREL(%rip)
.LBB19_43:
	testq	%r12, %r12
	je	.LBB19_45
.Ltmp118:
	movq	%r15, %rdi
	callq	*8(%r12)
.Ltmp119:
.LBB19_45:
	xorl	%eax, %eax
	addq	$40, %rsp
	.cfi_def_cfa_offset 56
	popq	%rbx
	.cfi_def_cfa_offset 48
	popq	%r12
	.cfi_def_cfa_offset 40
	popq	%r13
	.cfi_def_cfa_offset 32
	popq	%r14
	.cfi_def_cfa_offset 24
	popq	%r15
	.cfi_def_cfa_offset 16
	popq	%rbp
	.cfi_def_cfa_offset 8
	retq
.LBB19_58:
	.cfi_def_cfa_offset 96
	movq	16(%rbx), %r12
	movq	24(%rbx), %r15
	movq	$0, 16(%rbx)
	lock		andq	$-161, 8(%rbx)
	jmp	.LBB19_59
.LBB19_36:
	movq	16(%rbx), %r12
	movq	24(%rbx), %r15
	movq	$0, 16(%rbx)
	lock		andq	$-161, 8(%rbx)
	jmp	.LBB19_37
.LBB19_29:
.Ltmp103:
	movq	%rax, %rbx
	movq	8(%r13), %rsi
	testq	%rsi, %rsi
	je	.LBB19_31
	movq	16(%r13), %rdx
	movq	%r15, %rdi
	callq	*__rust_dealloc@GOTPCREL(%rip)
.LBB19_31:
.Ltmp104:
	leaq	7(%rsp), %rdi
	callq	*<async_task::utils::abort_on_panic::Bomb as core::ops::drop::Drop>::drop@GOTPCREL(%rip)
.Ltmp105:
	jmp	.LBB19_7
.LBB19_32:
.Ltmp106:
	callq	*core::panicking::panic_in_cleanup@GOTPCREL(%rip)
.LBB19_54:
.Ltmp90:
	movq	%rax, %rbx
.Ltmp91:
	leaq	8(%rsp), %rdi
	callq	core::ptr::drop_in_place<async_task::raw::RawTask<F,T,S,M>::run::Guard<async_executor::LocalExecutor::spawn<(),bevy_tasks::single_threaded_task_pool::Scope<()>::spawn_on_scope<bevy_ecs::schedule::executor::multi_threaded::ExecutorState::spawn_exclusive_system_task::{{closure}}>::{{closure}}>::{{closure}},(),async_executor::LocalExecutor::schedule::{{closure}},()>>
.Ltmp92:
	jmp	.LBB19_7
.LBB19_46:
.Ltmp111:
	movq	%rax, %rbx
.Ltmp112:
	leaq	7(%rsp), %rdi
	callq	*<async_task::utils::abort_on_panic::Bomb as core::ops::drop::Drop>::drop@GOTPCREL(%rip)
.Ltmp113:
	testq	%r12, %r12
	je	.LBB19_7
.Ltmp115:
	movq	%r15, %rdi
	callq	*24(%r12)
.Ltmp116:
	jmp	.LBB19_7
.LBB19_73:
.Ltmp114:
	callq	*core::panicking::panic_in_cleanup@GOTPCREL(%rip)
.LBB19_67:
.Ltmp70:
	movq	%rax, %rbx
.Ltmp71:
	leaq	7(%rsp), %rdi
	callq	*<async_task::utils::abort_on_panic::Bomb as core::ops::drop::Drop>::drop@GOTPCREL(%rip)
.Ltmp72:
	testq	%r12, %r12
	je	.LBB19_7
.Ltmp74:
	movq	%r15, %rdi
	callq	*24(%r12)
.Ltmp75:
	jmp	.LBB19_7
.LBB19_74:
.Ltmp73:
	callq	*core::panicking::panic_in_cleanup@GOTPCREL(%rip)
.LBB19_49:
.Ltmp120:
	movq	%rax, %rbx
.Ltmp121:
	leaq	7(%rsp), %rdi
	callq	*<async_task::utils::abort_on_panic::Bomb as core::ops::drop::Drop>::drop@GOTPCREL(%rip)
.Ltmp122:
	jmp	.LBB19_7
.LBB19_50:
.Ltmp123:
	callq	*core::panicking::panic_in_cleanup@GOTPCREL(%rip)
.LBB19_17:
.Ltmp84:
.Ltmp85:
	movq	%rax, %rdi
	callq	*std::panicking::try::cleanup@GOTPCREL(%rip)
.Ltmp86:
	movq	%rax, %rbp
	movq	%rdx, %r13
	jmp	.LBB19_19
.LBB19_16:
.Ltmp87:
	callq	*core::panicking::panic_cannot_unwind@GOTPCREL(%rip)
.LBB19_70:
.Ltmp78:
	movq	%rax, %rbx
.Ltmp79:
	leaq	7(%rsp), %rdi
	callq	*<async_task::utils::abort_on_panic::Bomb as core::ops::drop::Drop>::drop@GOTPCREL(%rip)
.Ltmp80:
	jmp	.LBB19_7
.LBB19_71:
.Ltmp81:
	callq	*core::panicking::panic_in_cleanup@GOTPCREL(%rip)
.LBB19_52:
.Ltmp95:
	movq	%rax, %rbx
.Ltmp96:
	leaq	7(%rsp), %rdi
	callq	*<async_task::utils::abort_on_panic::Bomb as core::ops::drop::Drop>::drop@GOTPCREL(%rip)
.Ltmp97:
.Ltmp99:
	movq	%rbp, %rdi
	movq	%r13, %rsi
	callq	core::ptr::drop_in_place<core::result::Result<(),alloc::boxed::Box<dyn core::any::Any+core::marker::Send>>>
.Ltmp100:
	jmp	.LBB19_7
.LBB19_72:
.Ltmp98:
	callq	*core::panicking::panic_in_cleanup@GOTPCREL(%rip)
.LBB19_51:
.Ltmp117:
	callq	*core::panicking::panic_in_cleanup@GOTPCREL(%rip)
.LBB19_6:
.Ltmp62:
	movq	%rax, %rbx
.Ltmp63:
	leaq	7(%rsp), %rdi
	callq	*<async_task::utils::abort_on_panic::Bomb as core::ops::drop::Drop>::drop@GOTPCREL(%rip)
.Ltmp64:
.LBB19_7:
	movq	%rbx, %rdi
	callq	_Unwind_Resume@PLT
.LBB19_8:
.Ltmp65:
	callq	*core::panicking::panic_in_cleanup@GOTPCREL(%rip)
.Lfunc_end19:
	.size	async_task::raw::RawTask<F,T,S,M>::run, .Lfunc_end19-async_task::raw::RawTask<F,T,S,M>::run
	.cfi_endproc
	.section	".gcc_except_table.async_task::raw::RawTask<F,T,S,M>::run","a",@progbits
	.p2align	2, 0x0
GCC_except_table19:
.Lexception6:
	.byte	255
	.byte	155
	.uleb128 .Lttbase6-.Lttbaseref6
.Lttbaseref6:
	.byte	1
	.uleb128 .Lcst_end6-.Lcst_begin6
.Lcst_begin6:
	.uleb128 .Ltmp82-.Lfunc_begin6
	.uleb128 .Ltmp83-.Ltmp82
	.uleb128 .Ltmp84-.Lfunc_begin6
	.byte	5
	.uleb128 .Ltmp60-.Lfunc_begin6
	.uleb128 .Ltmp61-.Ltmp60
	.uleb128 .Ltmp62-.Lfunc_begin6
	.byte	0
	.uleb128 .Ltmp66-.Lfunc_begin6
	.uleb128 .Ltmp69-.Ltmp66
	.uleb128 .Ltmp70-.Lfunc_begin6
	.byte	0
	.uleb128 .Ltmp76-.Lfunc_begin6
	.uleb128 .Ltmp77-.Ltmp76
	.uleb128 .Ltmp78-.Lfunc_begin6
	.byte	0
	.uleb128 .Ltmp88-.Lfunc_begin6
	.uleb128 .Ltmp89-.Ltmp88
	.uleb128 .Ltmp90-.Lfunc_begin6
	.byte	0
	.uleb128 .Ltmp93-.Lfunc_begin6
	.uleb128 .Ltmp94-.Ltmp93
	.uleb128 .Ltmp95-.Lfunc_begin6
	.byte	0
	.uleb128 .Ltmp101-.Lfunc_begin6
	.uleb128 .Ltmp102-.Ltmp101
	.uleb128 .Ltmp103-.Lfunc_begin6
	.byte	0
	.uleb128 .Ltmp107-.Lfunc_begin6
	.uleb128 .Ltmp110-.Ltmp107
	.uleb128 .Ltmp111-.Lfunc_begin6
	.byte	0
	.uleb128 .Ltmp118-.Lfunc_begin6
	.uleb128 .Ltmp119-.Ltmp118
	.uleb128 .Ltmp120-.Lfunc_begin6
	.byte	0
	.uleb128 .Ltmp104-.Lfunc_begin6
	.uleb128 .Ltmp105-.Ltmp104
	.uleb128 .Ltmp106-.Lfunc_begin6
	.byte	1
	.uleb128 .Ltmp91-.Lfunc_begin6
	.uleb128 .Ltmp92-.Ltmp91
	.uleb128 .Ltmp117-.Lfunc_begin6
	.byte	1
	.uleb128 .Ltmp112-.Lfunc_begin6
	.uleb128 .Ltmp113-.Ltmp112
	.uleb128 .Ltmp114-.Lfunc_begin6
	.byte	1
	.uleb128 .Ltmp115-.Lfunc_begin6
	.uleb128 .Ltmp116-.Ltmp115
	.uleb128 .Ltmp117-.Lfunc_begin6
	.byte	1
	.uleb128 .Ltmp71-.Lfunc_begin6
	.uleb128 .Ltmp72-.Ltmp71
	.uleb128 .Ltmp73-.Lfunc_begin6
	.byte	1
	.uleb128 .Ltmp74-.Lfunc_begin6
	.uleb128 .Ltmp75-.Ltmp74
	.uleb128 .Ltmp117-.Lfunc_begin6
	.byte	1
	.uleb128 .Ltmp121-.Lfunc_begin6
	.uleb128 .Ltmp122-.Ltmp121
	.uleb128 .Ltmp123-.Lfunc_begin6
	.byte	1
	.uleb128 .Ltmp85-.Lfunc_begin6
	.uleb128 .Ltmp86-.Ltmp85
	.uleb128 .Ltmp87-.Lfunc_begin6
	.byte	1
	.uleb128 .Ltmp79-.Lfunc_begin6
	.uleb128 .Ltmp80-.Ltmp79
	.uleb128 .Ltmp81-.Lfunc_begin6
	.byte	1
	.uleb128 .Ltmp96-.Lfunc_begin6
	.uleb128 .Ltmp97-.Ltmp96
	.uleb128 .Ltmp98-.Lfunc_begin6
	.byte	1
	.uleb128 .Ltmp99-.Lfunc_begin6
	.uleb128 .Ltmp100-.Ltmp99
	.uleb128 .Ltmp117-.Lfunc_begin6
	.byte	1
	.uleb128 .Ltmp63-.Lfunc_begin6
	.uleb128 .Ltmp64-.Ltmp63
	.uleb128 .Ltmp65-.Lfunc_begin6
	.byte	1
	.uleb128 .Ltmp64-.Lfunc_begin6
	.uleb128 .Lfunc_end19-.Ltmp64
	.byte	0
	.byte	0
.Lcst_end6:
	.byte	127
	.byte	0
	.byte	0
	.byte	0
	.byte	1
	.byte	125
	.p2align	2, 0x0
	.long	0
.Lttbase6:
	.byte	0
	.p2align	2, 0x0

	.section	".text.async_task::raw::RawTask<F,T,S,M>::run","ax",@progbits
	.p2align	4, 0x90
	.type	async_task::raw::RawTask<F,T,S,M>::run,@function
async_task::raw::RawTask<F,T,S,M>::run:
.Lfunc_begin7:
	.cfi_startproc
	.cfi_personality 155, DW.ref.rust_eh_personality
	.cfi_lsda 27, .Lexception7
	pushq	%rbp
	.cfi_def_cfa_offset 16
	pushq	%r15
	.cfi_def_cfa_offset 24
	pushq	%r14
	.cfi_def_cfa_offset 32
	pushq	%r13
	.cfi_def_cfa_offset 40
	pushq	%r12
	.cfi_def_cfa_offset 48
	pushq	%rbx
	.cfi_def_cfa_offset 56
	subq	$40, %rsp
	.cfi_def_cfa_offset 96
	.cfi_offset %rbx, -56
	.cfi_offset %r12, -48
	.cfi_offset %r13, -40
	.cfi_offset %r14, -32
	.cfi_offset %r15, -24
	.cfi_offset %rbp, -16
	movq	%rdi, %rbx
	leaq	40(%rdi), %r14
	leaq	48(%rdi), %r12
	movq	8(%rdi), %rax
	.p2align	4, 0x90
.LBB20_1:
	testb	$8, %al
	jne	.LBB20_9
	movq	%rax, %r15
	andq	$-4, %r15
	orq	$2, %r15
	lock		cmpxchgq	%r15, 8(%rbx)
	jne	.LBB20_1
	movq	%rbx, 8(%rsp)
	movq	%r14, 16(%rsp)
	movq	%r12, 24(%rsp)
	movq	%r12, 32(%rsp)
	cmpb	$0, 32(%rbx)
	je	.LBB20_4
.Ltmp146:
	movq	%r12, %rdi
	callq	async_executor::LocalExecutor::spawn::{{closure}}
.Ltmp147:
	xorl	%r13d, %r13d
	xorl	%ebp, %ebp
	jmp	.LBB20_19
.LBB20_9:
.Ltmp124:
	movq	%r12, %rdi
	callq	core::ptr::drop_in_place<async_executor::LocalExecutor::spawn<(),bevy_tasks::single_threaded_task_pool::Scope<()>::spawn_on_scope<bevy_ecs::schedule::executor::multi_threaded::ExecutorState::spawn_system_task::{{closure}}>::{{closure}}>::{{closure}}>
.Ltmp125:
	movq	8(%rbx), %rax
	.p2align	4, 0x90
.LBB20_11:
	movq	%rax, %rcx
	andq	$-2, %rcx
	lock		cmpxchgq	%rcx, 8(%rbx)
	jne	.LBB20_11
	testb	$32, %al
	je	.LBB20_13
	movq	8(%rbx), %rax
	.p2align	4, 0x90
.LBB20_56:
	movq	%rax, %rcx
	orq	$128, %rcx
	lock		cmpxchgq	%rcx, 8(%rbx)
	jne	.LBB20_56
	testb	$-64, %al
	je	.LBB20_58
.LBB20_13:
	xorl	%r12d, %r12d
.LBB20_59:
	movq	$-256, %rax
	lock		xaddq	%rax, 8(%rbx)
	andq	$-240, %rax
	cmpq	$256, %rax
	jne	.LBB20_65
	movq	16(%rbx), %rax
	testq	%rax, %rax
	je	.LBB20_62
	movq	24(%rbx), %rdi
.Ltmp130:
	callq	*24(%rax)
.Ltmp131:
.LBB20_62:
	movq	(%r14), %rax
	lock		decq	(%rax)
	jne	.LBB20_64
	#MEMBARRIER
.Ltmp132:
	movq	%r14, %rdi
	callq	alloc::sync::Arc<T,A>::drop_slow
.Ltmp133:
.LBB20_64:
	movl	$280, %esi
	movl	$8, %edx
	movq	%rbx, %rdi
	callq	*__rust_dealloc@GOTPCREL(%rip)
.LBB20_65:
	testq	%r12, %r12
	je	.LBB20_45
.Ltmp140:
	movq	%r15, %rdi
	callq	*8(%r12)
.Ltmp141:
	jmp	.LBB20_45
.LBB20_4:
.Ltmp152:
	movq	%r12, %rdi
	callq	async_executor::LocalExecutor::spawn::{{closure}}
.Ltmp153:
	xorl	%ebp, %ebp
.LBB20_19:
.Ltmp157:
	movq	%r12, %rdi
	callq	core::ptr::drop_in_place<async_executor::LocalExecutor::spawn<(),bevy_tasks::single_threaded_task_pool::Scope<()>::spawn_on_scope<bevy_ecs::schedule::executor::multi_threaded::ExecutorState::spawn_system_task::{{closure}}>::{{closure}}>::{{closure}}>
.Ltmp158:
	movq	%rbp, 48(%rbx)
	movq	%r13, 56(%rbx)
	.p2align	4, 0x90
.LBB20_21:
	movq	%r15, %r12
	movq	%r15, %rax
	andq	$-16, %rax
	orq	$12, %rax
	movq	%r15, %rcx
	andq	$-8, %rcx
	orq	$4, %rcx
	testb	$16, %r12b
	cmoveq	%rax, %rcx
	movq	%r15, %rax
	lock		cmpxchgq	%rcx, 8(%rbx)
	movq	%rax, %r15
	jne	.LBB20_21
	movl	%r12d, %eax
	andl	$24, %eax
	cmpl	$16, %eax
	je	.LBB20_27
	movq	48(%rbx), %r15
	testq	%r15, %r15
	je	.LBB20_27
	movq	56(%rbx), %r13
.Ltmp165:
	movq	%r15, %rdi
	callq	*(%r13)
.Ltmp166:
	movq	8(%r13), %rsi
	testq	%rsi, %rsi
	je	.LBB20_27
	movq	16(%r13), %rdx
	movq	%r15, %rdi
	callq	*__rust_dealloc@GOTPCREL(%rip)
.LBB20_27:
	testb	$32, %r12b
	je	.LBB20_28
	movq	8(%rbx), %rax
	.p2align	4, 0x90
.LBB20_34:
	movq	%rax, %rcx
	orq	$128, %rcx
	lock		cmpxchgq	%rcx, 8(%rbx)
	jne	.LBB20_34
	testb	$-64, %al
	je	.LBB20_36
.LBB20_28:
	xorl	%r12d, %r12d
.LBB20_37:
	movq	$-256, %rax
	lock		xaddq	%rax, 8(%rbx)
	andq	$-240, %rax
	cmpq	$256, %rax
	jne	.LBB20_43
	movq	16(%rbx), %rax
	testq	%rax, %rax
	je	.LBB20_40
	movq	24(%rbx), %rdi
.Ltmp171:
	callq	*24(%rax)
.Ltmp172:
.LBB20_40:
	movq	(%r14), %rax
	lock		decq	(%rax)
	jne	.LBB20_42
	#MEMBARRIER
.Ltmp173:
	movq	%r14, %rdi
	callq	alloc::sync::Arc<T,A>::drop_slow
.Ltmp174:
.LBB20_42:
	movl	$280, %esi
	movl	$8, %edx
	movq	%rbx, %rdi
	callq	*__rust_dealloc@GOTPCREL(%rip)
.LBB20_43:
	testq	%r12, %r12
	je	.LBB20_45
.Ltmp182:
	movq	%r15, %rdi
	callq	*8(%r12)
.Ltmp183:
.LBB20_45:
	xorl	%eax, %eax
	addq	$40, %rsp
	.cfi_def_cfa_offset 56
	popq	%rbx
	.cfi_def_cfa_offset 48
	popq	%r12
	.cfi_def_cfa_offset 40
	popq	%r13
	.cfi_def_cfa_offset 32
	popq	%r14
	.cfi_def_cfa_offset 24
	popq	%r15
	.cfi_def_cfa_offset 16
	popq	%rbp
	.cfi_def_cfa_offset 8
	retq
.LBB20_58:
	.cfi_def_cfa_offset 96
	movq	16(%rbx), %r12
	movq	24(%rbx), %r15
	movq	$0, 16(%rbx)
	lock		andq	$-161, 8(%rbx)
	jmp	.LBB20_59
.LBB20_36:
	movq	16(%rbx), %r12
	movq	24(%rbx), %r15
	movq	$0, 16(%rbx)
	lock		andq	$-161, 8(%rbx)
	jmp	.LBB20_37
.LBB20_29:
.Ltmp167:
	movq	%rax, %rbx
	movq	8(%r13), %rsi
	testq	%rsi, %rsi
	je	.LBB20_31
	movq	16(%r13), %rdx
	movq	%r15, %rdi
	callq	*__rust_dealloc@GOTPCREL(%rip)
.LBB20_31:
.Ltmp168:
	leaq	7(%rsp), %rdi
	callq	*<async_task::utils::abort_on_panic::Bomb as core::ops::drop::Drop>::drop@GOTPCREL(%rip)
.Ltmp169:
	jmp	.LBB20_7
.LBB20_32:
.Ltmp170:
	callq	*core::panicking::panic_in_cleanup@GOTPCREL(%rip)
.LBB20_54:
.Ltmp154:
	movq	%rax, %rbx
.Ltmp155:
	leaq	8(%rsp), %rdi
	callq	core::ptr::drop_in_place<async_task::raw::RawTask<F,T,S,M>::run::Guard<async_executor::LocalExecutor::spawn<(),bevy_tasks::single_threaded_task_pool::Scope<()>::spawn_on_scope<bevy_ecs::schedule::executor::multi_threaded::ExecutorState::spawn_system_task::{{closure}}>::{{closure}}>::{{closure}},(),async_executor::LocalExecutor::schedule::{{closure}},()>>
.Ltmp156:
	jmp	.LBB20_7
.LBB20_46:
.Ltmp175:
	movq	%rax, %rbx
.Ltmp176:
	leaq	7(%rsp), %rdi
	callq	*<async_task::utils::abort_on_panic::Bomb as core::ops::drop::Drop>::drop@GOTPCREL(%rip)
.Ltmp177:
	testq	%r12, %r12
	je	.LBB20_7
.Ltmp179:
	movq	%r15, %rdi
	callq	*24(%r12)
.Ltmp180:
	jmp	.LBB20_7
.LBB20_73:
.Ltmp178:
	callq	*core::panicking::panic_in_cleanup@GOTPCREL(%rip)
.LBB20_67:
.Ltmp134:
	movq	%rax, %rbx
.Ltmp135:
	leaq	7(%rsp), %rdi
	callq	*<async_task::utils::abort_on_panic::Bomb as core::ops::drop::Drop>::drop@GOTPCREL(%rip)
.Ltmp136:
	testq	%r12, %r12
	je	.LBB20_7
.Ltmp138:
	movq	%r15, %rdi
	callq	*24(%r12)
.Ltmp139:
	jmp	.LBB20_7
.LBB20_74:
.Ltmp137:
	callq	*core::panicking::panic_in_cleanup@GOTPCREL(%rip)
.LBB20_49:
.Ltmp184:
	movq	%rax, %rbx
.Ltmp185:
	leaq	7(%rsp), %rdi
	callq	*<async_task::utils::abort_on_panic::Bomb as core::ops::drop::Drop>::drop@GOTPCREL(%rip)
.Ltmp186:
	jmp	.LBB20_7
.LBB20_50:
.Ltmp187:
	callq	*core::panicking::panic_in_cleanup@GOTPCREL(%rip)
.LBB20_17:
.Ltmp148:
.Ltmp149:
	movq	%rax, %rdi
	callq	*std::panicking::try::cleanup@GOTPCREL(%rip)
.Ltmp150:
	movq	%rax, %rbp
	movq	%rdx, %r13
	jmp	.LBB20_19
.LBB20_16:
.Ltmp151:
	callq	*core::panicking::panic_cannot_unwind@GOTPCREL(%rip)
.LBB20_70:
.Ltmp142:
	movq	%rax, %rbx
.Ltmp143:
	leaq	7(%rsp), %rdi
	callq	*<async_task::utils::abort_on_panic::Bomb as core::ops::drop::Drop>::drop@GOTPCREL(%rip)
.Ltmp144:
	jmp	.LBB20_7
.LBB20_71:
.Ltmp145:
	callq	*core::panicking::panic_in_cleanup@GOTPCREL(%rip)
.LBB20_52:
.Ltmp159:
	movq	%rax, %rbx
.Ltmp160:
	leaq	7(%rsp), %rdi
	callq	*<async_task::utils::abort_on_panic::Bomb as core::ops::drop::Drop>::drop@GOTPCREL(%rip)
.Ltmp161:
.Ltmp163:
	movq	%rbp, %rdi
	movq	%r13, %rsi
	callq	core::ptr::drop_in_place<core::result::Result<(),alloc::boxed::Box<dyn core::any::Any+core::marker::Send>>>
.Ltmp164:
	jmp	.LBB20_7
.LBB20_72:
.Ltmp162:
	callq	*core::panicking::panic_in_cleanup@GOTPCREL(%rip)
.LBB20_51:
.Ltmp181:
	callq	*core::panicking::panic_in_cleanup@GOTPCREL(%rip)
.LBB20_6:
.Ltmp126:
	movq	%rax, %rbx
.Ltmp127:
	leaq	7(%rsp), %rdi
	callq	*<async_task::utils::abort_on_panic::Bomb as core::ops::drop::Drop>::drop@GOTPCREL(%rip)
.Ltmp128:
.LBB20_7:
	movq	%rbx, %rdi
	callq	_Unwind_Resume@PLT
.LBB20_8:
.Ltmp129:
	callq	*core::panicking::panic_in_cleanup@GOTPCREL(%rip)
.Lfunc_end20:
	.size	async_task::raw::RawTask<F,T,S,M>::run, .Lfunc_end20-async_task::raw::RawTask<F,T,S,M>::run
	.cfi_endproc
	.section	".gcc_except_table.async_task::raw::RawTask<F,T,S,M>::run","a",@progbits
	.p2align	2, 0x0
GCC_except_table20:
.Lexception7:
	.byte	255
	.byte	155
	.uleb128 .Lttbase7-.Lttbaseref7
.Lttbaseref7:
	.byte	1
	.uleb128 .Lcst_end7-.Lcst_begin7
.Lcst_begin7:
	.uleb128 .Ltmp146-.Lfunc_begin7
	.uleb128 .Ltmp147-.Ltmp146
	.uleb128 .Ltmp148-.Lfunc_begin7
	.byte	5
	.uleb128 .Ltmp124-.Lfunc_begin7
	.uleb128 .Ltmp125-.Ltmp124
	.uleb128 .Ltmp126-.Lfunc_begin7
	.byte	0
	.uleb128 .Ltmp130-.Lfunc_begin7
	.uleb128 .Ltmp133-.Ltmp130
	.uleb128 .Ltmp134-.Lfunc_begin7
	.byte	0
	.uleb128 .Ltmp140-.Lfunc_begin7
	.uleb128 .Ltmp141-.Ltmp140
	.uleb128 .Ltmp142-.Lfunc_begin7
	.byte	0
	.uleb128 .Ltmp152-.Lfunc_begin7
	.uleb128 .Ltmp153-.Ltmp152
	.uleb128 .Ltmp154-.Lfunc_begin7
	.byte	0
	.uleb128 .Ltmp157-.Lfunc_begin7
	.uleb128 .Ltmp158-.Ltmp157
	.uleb128 .Ltmp159-.Lfunc_begin7
	.byte	0
	.uleb128 .Ltmp165-.Lfunc_begin7
	.uleb128 .Ltmp166-.Ltmp165
	.uleb128 .Ltmp167-.Lfunc_begin7
	.byte	0
	.uleb128 .Ltmp171-.Lfunc_begin7
	.uleb128 .Ltmp174-.Ltmp171
	.uleb128 .Ltmp175-.Lfunc_begin7
	.byte	0
	.uleb128 .Ltmp182-.Lfunc_begin7
	.uleb128 .Ltmp183-.Ltmp182
	.uleb128 .Ltmp184-.Lfunc_begin7
	.byte	0
	.uleb128 .Ltmp168-.Lfunc_begin7
	.uleb128 .Ltmp169-.Ltmp168
	.uleb128 .Ltmp170-.Lfunc_begin7
	.byte	1
	.uleb128 .Ltmp155-.Lfunc_begin7
	.uleb128 .Ltmp156-.Ltmp155
	.uleb128 .Ltmp181-.Lfunc_begin7
	.byte	1
	.uleb128 .Ltmp176-.Lfunc_begin7
	.uleb128 .Ltmp177-.Ltmp176
	.uleb128 .Ltmp178-.Lfunc_begin7
	.byte	1
	.uleb128 .Ltmp179-.Lfunc_begin7
	.uleb128 .Ltmp180-.Ltmp179
	.uleb128 .Ltmp181-.Lfunc_begin7
	.byte	1
	.uleb128 .Ltmp135-.Lfunc_begin7
	.uleb128 .Ltmp136-.Ltmp135
	.uleb128 .Ltmp137-.Lfunc_begin7
	.byte	1
	.uleb128 .Ltmp138-.Lfunc_begin7
	.uleb128 .Ltmp139-.Ltmp138
	.uleb128 .Ltmp181-.Lfunc_begin7
	.byte	1
	.uleb128 .Ltmp185-.Lfunc_begin7
	.uleb128 .Ltmp186-.Ltmp185
	.uleb128 .Ltmp187-.Lfunc_begin7
	.byte	1
	.uleb128 .Ltmp149-.Lfunc_begin7
	.uleb128 .Ltmp150-.Ltmp149
	.uleb128 .Ltmp151-.Lfunc_begin7
	.byte	1
	.uleb128 .Ltmp143-.Lfunc_begin7
	.uleb128 .Ltmp144-.Ltmp143
	.uleb128 .Ltmp145-.Lfunc_begin7
	.byte	1
	.uleb128 .Ltmp160-.Lfunc_begin7
	.uleb128 .Ltmp161-.Ltmp160
	.uleb128 .Ltmp162-.Lfunc_begin7
	.byte	1
	.uleb128 .Ltmp163-.Lfunc_begin7
	.uleb128 .Ltmp164-.Ltmp163
	.uleb128 .Ltmp181-.Lfunc_begin7
	.byte	1
	.uleb128 .Ltmp127-.Lfunc_begin7
	.uleb128 .Ltmp128-.Ltmp127
	.uleb128 .Ltmp129-.Lfunc_begin7
	.byte	1
	.uleb128 .Ltmp128-.Lfunc_begin7
	.uleb128 .Lfunc_end20-.Ltmp128
	.byte	0
	.byte	0
.Lcst_end7:
	.byte	127
	.byte	0
	.byte	0
	.byte	0
	.byte	1
	.byte	125
	.p2align	2, 0x0
	.long	0
.Lttbase7:
	.byte	0
	.p2align	2, 0x0

	.section	".text.async_task::raw::RawTask<F,T,S,M>::run","ax",@progbits
	.p2align	4, 0x90
	.type	async_task::raw::RawTask<F,T,S,M>::run,@function
async_task::raw::RawTask<F,T,S,M>::run:
.Lfunc_begin8:
	.cfi_startproc
	.cfi_personality 155, DW.ref.rust_eh_personality
	.cfi_lsda 27, .Lexception8
	pushq	%rbp
	.cfi_def_cfa_offset 16
	pushq	%r15
	.cfi_def_cfa_offset 24
	pushq	%r14
	.cfi_def_cfa_offset 32
	pushq	%r13
	.cfi_def_cfa_offset 40
	pushq	%r12
	.cfi_def_cfa_offset 48
	pushq	%rbx
	.cfi_def_cfa_offset 56
	subq	$40, %rsp
	.cfi_def_cfa_offset 96
	.cfi_offset %rbx, -56
	.cfi_offset %r12, -48
	.cfi_offset %r13, -40
	.cfi_offset %r14, -32
	.cfi_offset %r15, -24
	.cfi_offset %rbp, -16
	movq	%rdi, %rbx
	leaq	40(%rdi), %r14
	leaq	48(%rdi), %r12
	movq	8(%rdi), %rax
	.p2align	4, 0x90
.LBB21_1:
	testb	$8, %al
	jne	.LBB21_9
	movq	%rax, %r15
	andq	$-4, %r15
	orq	$2, %r15
	lock		cmpxchgq	%r15, 8(%rbx)
	jne	.LBB21_1
	movq	%rbx, 8(%rsp)
	movq	%r14, 16(%rsp)
	movq	%r12, 24(%rsp)
	movq	%r12, 32(%rsp)
	cmpb	$0, 32(%rbx)
	je	.LBB21_4
.Ltmp210:
	movq	%r12, %rdi
	callq	async_executor::LocalExecutor::spawn::{{closure}}
.Ltmp211:
	xorl	%r13d, %r13d
	xorl	%ebp, %ebp
	jmp	.LBB21_19
.LBB21_9:
.Ltmp188:
	movq	%r12, %rdi
	callq	core::ptr::drop_in_place<async_executor::LocalExecutor::spawn<(),bevy_tasks::single_threaded_task_pool::Scope<()>::spawn_on_scope<bevy_ecs::schedule::executor::multi_threaded::ExecutorState::spawn_exclusive_system_task::{{closure}}>::{{closure}}>::{{closure}}>
.Ltmp189:
	movq	8(%rbx), %rax
	.p2align	4, 0x90
.LBB21_11:
	movq	%rax, %rcx
	andq	$-2, %rcx
	lock		cmpxchgq	%rcx, 8(%rbx)
	jne	.LBB21_11
	testb	$32, %al
	je	.LBB21_13
	movq	8(%rbx), %rax
	.p2align	4, 0x90
.LBB21_56:
	movq	%rax, %rcx
	orq	$128, %rcx
	lock		cmpxchgq	%rcx, 8(%rbx)
	jne	.LBB21_56
	testb	$-64, %al
	je	.LBB21_58
.LBB21_13:
	xorl	%r12d, %r12d
.LBB21_59:
	movq	$-256, %rax
	lock		xaddq	%rax, 8(%rbx)
	andq	$-240, %rax
	cmpq	$256, %rax
	jne	.LBB21_65
	movq	16(%rbx), %rax
	testq	%rax, %rax
	je	.LBB21_62
	movq	24(%rbx), %rdi
.Ltmp194:
	callq	*24(%rax)
.Ltmp195:
.LBB21_62:
	movq	(%r14), %rax
	lock		decq	(%rax)
	jne	.LBB21_64
	#MEMBARRIER
.Ltmp196:
	movq	%r14, %rdi
	callq	alloc::sync::Arc<T,A>::drop_slow
.Ltmp197:
.LBB21_64:
	movl	$312, %esi
	movl	$8, %edx
	movq	%rbx, %rdi
	callq	*__rust_dealloc@GOTPCREL(%rip)
.LBB21_65:
	testq	%r12, %r12
	je	.LBB21_45
.Ltmp204:
	movq	%r15, %rdi
	callq	*8(%r12)
.Ltmp205:
	jmp	.LBB21_45
.LBB21_4:
.Ltmp216:
	movq	%r12, %rdi
	callq	async_executor::LocalExecutor::spawn::{{closure}}
.Ltmp217:
	xorl	%ebp, %ebp
.LBB21_19:
.Ltmp221:
	movq	%r12, %rdi
	callq	core::ptr::drop_in_place<async_executor::LocalExecutor::spawn<(),bevy_tasks::single_threaded_task_pool::Scope<()>::spawn_on_scope<bevy_ecs::schedule::executor::multi_threaded::ExecutorState::spawn_exclusive_system_task::{{closure}}>::{{closure}}>::{{closure}}>
.Ltmp222:
	movq	%rbp, 48(%rbx)
	movq	%r13, 56(%rbx)
	.p2align	4, 0x90
.LBB21_21:
	movq	%r15, %r12
	movq	%r15, %rax
	andq	$-16, %rax
	orq	$12, %rax
	movq	%r15, %rcx
	andq	$-8, %rcx
	orq	$4, %rcx
	testb	$16, %r12b
	cmoveq	%rax, %rcx
	movq	%r15, %rax
	lock		cmpxchgq	%rcx, 8(%rbx)
	movq	%rax, %r15
	jne	.LBB21_21
	movl	%r12d, %eax
	andl	$24, %eax
	cmpl	$16, %eax
	je	.LBB21_27
	movq	48(%rbx), %r15
	testq	%r15, %r15
	je	.LBB21_27
	movq	56(%rbx), %r13
.Ltmp229:
	movq	%r15, %rdi
	callq	*(%r13)
.Ltmp230:
	movq	8(%r13), %rsi
	testq	%rsi, %rsi
	je	.LBB21_27
	movq	16(%r13), %rdx
	movq	%r15, %rdi
	callq	*__rust_dealloc@GOTPCREL(%rip)
.LBB21_27:
	testb	$32, %r12b
	je	.LBB21_28
	movq	8(%rbx), %rax
	.p2align	4, 0x90
.LBB21_34:
	movq	%rax, %rcx
	orq	$128, %rcx
	lock		cmpxchgq	%rcx, 8(%rbx)
	jne	.LBB21_34
	testb	$-64, %al
	je	.LBB21_36
.LBB21_28:
	xorl	%r12d, %r12d
.LBB21_37:
	movq	$-256, %rax
	lock		xaddq	%rax, 8(%rbx)
	andq	$-240, %rax
	cmpq	$256, %rax
	jne	.LBB21_43
	movq	16(%rbx), %rax
	testq	%rax, %rax
	je	.LBB21_40
	movq	24(%rbx), %rdi
.Ltmp235:
	callq	*24(%rax)
.Ltmp236:
.LBB21_40:
	movq	(%r14), %rax
	lock		decq	(%rax)
	jne	.LBB21_42
	#MEMBARRIER
.Ltmp237:
	movq	%r14, %rdi
	callq	alloc::sync::Arc<T,A>::drop_slow
.Ltmp238:
.LBB21_42:
	movl	$312, %esi
	movl	$8, %edx
	movq	%rbx, %rdi
	callq	*__rust_dealloc@GOTPCREL(%rip)
.LBB21_43:
	testq	%r12, %r12
	je	.LBB21_45
.Ltmp246:
	movq	%r15, %rdi
	callq	*8(%r12)
.Ltmp247:
.LBB21_45:
	xorl	%eax, %eax
	addq	$40, %rsp
	.cfi_def_cfa_offset 56
	popq	%rbx
	.cfi_def_cfa_offset 48
	popq	%r12
	.cfi_def_cfa_offset 40
	popq	%r13
	.cfi_def_cfa_offset 32
	popq	%r14
	.cfi_def_cfa_offset 24
	popq	%r15
	.cfi_def_cfa_offset 16
	popq	%rbp
	.cfi_def_cfa_offset 8
	retq
.LBB21_58:
	.cfi_def_cfa_offset 96
	movq	16(%rbx), %r12
	movq	24(%rbx), %r15
	movq	$0, 16(%rbx)
	lock		andq	$-161, 8(%rbx)
	jmp	.LBB21_59
.LBB21_36:
	movq	16(%rbx), %r12
	movq	24(%rbx), %r15
	movq	$0, 16(%rbx)
	lock		andq	$-161, 8(%rbx)
	jmp	.LBB21_37
.LBB21_29:
.Ltmp231:
	movq	%rax, %rbx
	movq	8(%r13), %rsi
	testq	%rsi, %rsi
	je	.LBB21_31
	movq	16(%r13), %rdx
	movq	%r15, %rdi
	callq	*__rust_dealloc@GOTPCREL(%rip)
.LBB21_31:
.Ltmp232:
	leaq	7(%rsp), %rdi
	callq	*<async_task::utils::abort_on_panic::Bomb as core::ops::drop::Drop>::drop@GOTPCREL(%rip)
.Ltmp233:
	jmp	.LBB21_7
.LBB21_32:
.Ltmp234:
	callq	*core::panicking::panic_in_cleanup@GOTPCREL(%rip)
.LBB21_54:
.Ltmp218:
	movq	%rax, %rbx
.Ltmp219:
	leaq	8(%rsp), %rdi
	callq	core::ptr::drop_in_place<async_task::raw::RawTask<F,T,S,M>::run::Guard<async_executor::LocalExecutor::spawn<(),bevy_tasks::single_threaded_task_pool::Scope<()>::spawn_on_scope<bevy_ecs::schedule::executor::multi_threaded::ExecutorState::spawn_exclusive_system_task::{{closure}}>::{{closure}}>::{{closure}},(),async_executor::LocalExecutor::schedule::{{closure}},()>>
.Ltmp220:
	jmp	.LBB21_7
.LBB21_46:
.Ltmp239:
	movq	%rax, %rbx
.Ltmp240:
	leaq	7(%rsp), %rdi
	callq	*<async_task::utils::abort_on_panic::Bomb as core::ops::drop::Drop>::drop@GOTPCREL(%rip)
.Ltmp241:
	testq	%r12, %r12
	je	.LBB21_7
.Ltmp243:
	movq	%r15, %rdi
	callq	*24(%r12)
.Ltmp244:
	jmp	.LBB21_7
.LBB21_73:
.Ltmp242:
	callq	*core::panicking::panic_in_cleanup@GOTPCREL(%rip)
.LBB21_67:
.Ltmp198:
	movq	%rax, %rbx
.Ltmp199:
	leaq	7(%rsp), %rdi
	callq	*<async_task::utils::abort_on_panic::Bomb as core::ops::drop::Drop>::drop@GOTPCREL(%rip)
.Ltmp200:
	testq	%r12, %r12
	je	.LBB21_7
.Ltmp202:
	movq	%r15, %rdi
	callq	*24(%r12)
.Ltmp203:
	jmp	.LBB21_7
.LBB21_74:
.Ltmp201:
	callq	*core::panicking::panic_in_cleanup@GOTPCREL(%rip)
.LBB21_49:
.Ltmp248:
	movq	%rax, %rbx
.Ltmp249:
	leaq	7(%rsp), %rdi
	callq	*<async_task::utils::abort_on_panic::Bomb as core::ops::drop::Drop>::drop@GOTPCREL(%rip)
.Ltmp250:
	jmp	.LBB21_7
.LBB21_50:
.Ltmp251:
	callq	*core::panicking::panic_in_cleanup@GOTPCREL(%rip)
.LBB21_17:
.Ltmp212:
.Ltmp213:
	movq	%rax, %rdi
	callq	*std::panicking::try::cleanup@GOTPCREL(%rip)
.Ltmp214:
	movq	%rax, %rbp
	movq	%rdx, %r13
	jmp	.LBB21_19
.LBB21_16:
.Ltmp215:
	callq	*core::panicking::panic_cannot_unwind@GOTPCREL(%rip)
.LBB21_70:
.Ltmp206:
	movq	%rax, %rbx
.Ltmp207:
	leaq	7(%rsp), %rdi
	callq	*<async_task::utils::abort_on_panic::Bomb as core::ops::drop::Drop>::drop@GOTPCREL(%rip)
.Ltmp208:
	jmp	.LBB21_7
.LBB21_71:
.Ltmp209:
	callq	*core::panicking::panic_in_cleanup@GOTPCREL(%rip)
.LBB21_52:
.Ltmp223:
	movq	%rax, %rbx
.Ltmp224:
	leaq	7(%rsp), %rdi
	callq	*<async_task::utils::abort_on_panic::Bomb as core::ops::drop::Drop>::drop@GOTPCREL(%rip)
.Ltmp225:
.Ltmp227:
	movq	%rbp, %rdi
	movq	%r13, %rsi
	callq	core::ptr::drop_in_place<core::result::Result<(),alloc::boxed::Box<dyn core::any::Any+core::marker::Send>>>
.Ltmp228:
	jmp	.LBB21_7
.LBB21_72:
.Ltmp226:
	callq	*core::panicking::panic_in_cleanup@GOTPCREL(%rip)
.LBB21_51:
.Ltmp245:
	callq	*core::panicking::panic_in_cleanup@GOTPCREL(%rip)
.LBB21_6:
.Ltmp190:
	movq	%rax, %rbx
.Ltmp191:
	leaq	7(%rsp), %rdi
	callq	*<async_task::utils::abort_on_panic::Bomb as core::ops::drop::Drop>::drop@GOTPCREL(%rip)
.Ltmp192:
.LBB21_7:
	movq	%rbx, %rdi
	callq	_Unwind_Resume@PLT
.LBB21_8:
.Ltmp193:
	callq	*core::panicking::panic_in_cleanup@GOTPCREL(%rip)
.Lfunc_end21:
	.size	async_task::raw::RawTask<F,T,S,M>::run, .Lfunc_end21-async_task::raw::RawTask<F,T,S,M>::run
	.cfi_endproc
	.section	".gcc_except_table.async_task::raw::RawTask<F,T,S,M>::run","a",@progbits
	.p2align	2, 0x0
GCC_except_table21:
.Lexception8:
	.byte	255
	.byte	155
	.uleb128 .Lttbase8-.Lttbaseref8
.Lttbaseref8:
	.byte	1
	.uleb128 .Lcst_end8-.Lcst_begin8
.Lcst_begin8:
	.uleb128 .Ltmp210-.Lfunc_begin8
	.uleb128 .Ltmp211-.Ltmp210
	.uleb128 .Ltmp212-.Lfunc_begin8
	.byte	5
	.uleb128 .Ltmp188-.Lfunc_begin8
	.uleb128 .Ltmp189-.Ltmp188
	.uleb128 .Ltmp190-.Lfunc_begin8
	.byte	0
	.uleb128 .Ltmp194-.Lfunc_begin8
	.uleb128 .Ltmp197-.Ltmp194
	.uleb128 .Ltmp198-.Lfunc_begin8
	.byte	0
	.uleb128 .Ltmp204-.Lfunc_begin8
	.uleb128 .Ltmp205-.Ltmp204
	.uleb128 .Ltmp206-.Lfunc_begin8
	.byte	0
	.uleb128 .Ltmp216-.Lfunc_begin8
	.uleb128 .Ltmp217-.Ltmp216
	.uleb128 .Ltmp218-.Lfunc_begin8
	.byte	0
	.uleb128 .Ltmp221-.Lfunc_begin8
	.uleb128 .Ltmp222-.Ltmp221
	.uleb128 .Ltmp223-.Lfunc_begin8
	.byte	0
	.uleb128 .Ltmp229-.Lfunc_begin8
	.uleb128 .Ltmp230-.Ltmp229
	.uleb128 .Ltmp231-.Lfunc_begin8
	.byte	0
	.uleb128 .Ltmp235-.Lfunc_begin8
	.uleb128 .Ltmp238-.Ltmp235
	.uleb128 .Ltmp239-.Lfunc_begin8
	.byte	0
	.uleb128 .Ltmp246-.Lfunc_begin8
	.uleb128 .Ltmp247-.Ltmp246
	.uleb128 .Ltmp248-.Lfunc_begin8
	.byte	0
	.uleb128 .Ltmp232-.Lfunc_begin8
	.uleb128 .Ltmp233-.Ltmp232
	.uleb128 .Ltmp234-.Lfunc_begin8
	.byte	1
	.uleb128 .Ltmp219-.Lfunc_begin8
	.uleb128 .Ltmp220-.Ltmp219
	.uleb128 .Ltmp245-.Lfunc_begin8
	.byte	1
	.uleb128 .Ltmp240-.Lfunc_begin8
	.uleb128 .Ltmp241-.Ltmp240
	.uleb128 .Ltmp242-.Lfunc_begin8
	.byte	1
	.uleb128 .Ltmp243-.Lfunc_begin8
	.uleb128 .Ltmp244-.Ltmp243
	.uleb128 .Ltmp245-.Lfunc_begin8
	.byte	1
	.uleb128 .Ltmp199-.Lfunc_begin8
	.uleb128 .Ltmp200-.Ltmp199
	.uleb128 .Ltmp201-.Lfunc_begin8
	.byte	1
	.uleb128 .Ltmp202-.Lfunc_begin8
	.uleb128 .Ltmp203-.Ltmp202
	.uleb128 .Ltmp245-.Lfunc_begin8
	.byte	1
	.uleb128 .Ltmp249-.Lfunc_begin8
	.uleb128 .Ltmp250-.Ltmp249
	.uleb128 .Ltmp251-.Lfunc_begin8
	.byte	1
	.uleb128 .Ltmp213-.Lfunc_begin8
	.uleb128 .Ltmp214-.Ltmp213
	.uleb128 .Ltmp215-.Lfunc_begin8
	.byte	1
	.uleb128 .Ltmp207-.Lfunc_begin8
	.uleb128 .Ltmp208-.Ltmp207
	.uleb128 .Ltmp209-.Lfunc_begin8
	.byte	1
	.uleb128 .Ltmp224-.Lfunc_begin8
	.uleb128 .Ltmp225-.Ltmp224
	.uleb128 .Ltmp226-.Lfunc_begin8
	.byte	1
	.uleb128 .Ltmp227-.Lfunc_begin8
	.uleb128 .Ltmp228-.Ltmp227
	.uleb128 .Ltmp245-.Lfunc_begin8
	.byte	1
	.uleb128 .Ltmp191-.Lfunc_begin8
	.uleb128 .Ltmp192-.Ltmp191
	.uleb128 .Ltmp193-.Lfunc_begin8
	.byte	1
	.uleb128 .Ltmp192-.Lfunc_begin8
	.uleb128 .Lfunc_end21-.Ltmp192
	.byte	0
	.byte	0
.Lcst_end8:
	.byte	127
	.byte	0
	.byte	0
	.byte	0
	.byte	1
	.byte	125
	.p2align	2, 0x0
	.long	0
.Lttbase8:
	.byte	0
	.p2align	2, 0x0

	.section	".text.async_task::raw::RawTask<F,T,S,M>::wake","ax",@progbits
	.p2align	4, 0x90
	.type	async_task::raw::RawTask<F,T,S,M>::wake,@function
async_task::raw::RawTask<F,T,S,M>::wake:
	.cfi_startproc
	pushq	%rbx
	.cfi_def_cfa_offset 16
	.cfi_offset %rbx, -16
	movq	%rdi, %rbx
	movq	8(%rdi), %rcx
	jmp	.LBB22_1
	.p2align	4, 0x90
.LBB22_3:
	orq	$1, %rax
	leaq	256(%rax), %rdx
	testb	$2, %cl
	cmovneq	%rax, %rdx
	movq	%rcx, %rax
	lock		cmpxchgq	%rdx, 8(%rbx)
	je	.LBB22_6
.LBB22_4:
	movq	%rax, %rcx
.LBB22_1:
	testb	$12, %cl
	jne	.LBB22_9
	movq	%rcx, %rax
	testb	$1, %cl
	je	.LBB22_3
	lock		cmpxchgq	%rcx, 8(%rbx)
	jne	.LBB22_4
.LBB22_9:
	movq	%rbx, %rdi
	popq	%rbx
	.cfi_def_cfa_offset 8
	jmp	async_task::raw::RawTask<F,T,S,M>::drop_waker
.LBB22_6:
	.cfi_def_cfa_offset 16
	testb	$2, %cl
	jne	.LBB22_9
	testq	%rcx, %rcx
	js	.LBB22_10
	movq	40(%rbx), %rdi
	movq	%rbx, %rsi
	callq	<F as async_task::runnable::Schedule<M>>::schedule
	movq	%rbx, %rdi
	popq	%rbx
	.cfi_def_cfa_offset 8
	jmp	async_task::raw::RawTask<F,T,S,M>::drop_waker
.LBB22_10:
	.cfi_def_cfa_offset 16
	callq	*async_task::utils::abort@GOTPCREL(%rip)
.Lfunc_end22:
	.size	async_task::raw::RawTask<F,T,S,M>::wake, .Lfunc_end22-async_task::raw::RawTask<F,T,S,M>::wake
	.cfi_endproc

	.section	".text.async_task::raw::RawTask<F,T,S,M>::wake","ax",@progbits
	.p2align	4, 0x90
	.type	async_task::raw::RawTask<F,T,S,M>::wake,@function
async_task::raw::RawTask<F,T,S,M>::wake:
	.cfi_startproc
	pushq	%rbx
	.cfi_def_cfa_offset 16
	.cfi_offset %rbx, -16
	movq	%rdi, %rbx
	movq	8(%rdi), %rcx
	jmp	.LBB23_1
	.p2align	4, 0x90
.LBB23_3:
	orq	$1, %rax
	leaq	256(%rax), %rdx
	testb	$2, %cl
	cmovneq	%rax, %rdx
	movq	%rcx, %rax
	lock		cmpxchgq	%rdx, 8(%rbx)
	je	.LBB23_6
.LBB23_4:
	movq	%rax, %rcx
.LBB23_1:
	testb	$12, %cl
	jne	.LBB23_9
	movq	%rcx, %rax
	testb	$1, %cl
	je	.LBB23_3
	lock		cmpxchgq	%rcx, 8(%rbx)
	jne	.LBB23_4
.LBB23_9:
	movq	%rbx, %rdi
	popq	%rbx
	.cfi_def_cfa_offset 8
	jmp	async_task::raw::RawTask<F,T,S,M>::drop_waker
.LBB23_6:
	.cfi_def_cfa_offset 16
	testb	$2, %cl
	jne	.LBB23_9
	testq	%rcx, %rcx
	js	.LBB23_10
	movq	40(%rbx), %rdi
	movq	%rbx, %rsi
	callq	<F as async_task::runnable::Schedule<M>>::schedule
	movq	%rbx, %rdi
	popq	%rbx
	.cfi_def_cfa_offset 8
	jmp	async_task::raw::RawTask<F,T,S,M>::drop_waker
.LBB23_10:
	.cfi_def_cfa_offset 16
	callq	*async_task::utils::abort@GOTPCREL(%rip)
.Lfunc_end23:
	.size	async_task::raw::RawTask<F,T,S,M>::wake, .Lfunc_end23-async_task::raw::RawTask<F,T,S,M>::wake
	.cfi_endproc

	.section	".text.async_task::raw::RawTask<F,T,S,M>::wake","ax",@progbits
	.p2align	4, 0x90
	.type	async_task::raw::RawTask<F,T,S,M>::wake,@function
async_task::raw::RawTask<F,T,S,M>::wake:
	.cfi_startproc
	pushq	%rbx
	.cfi_def_cfa_offset 16
	.cfi_offset %rbx, -16
	movq	%rdi, %rbx
	movq	8(%rdi), %rcx
	jmp	.LBB24_1
	.p2align	4, 0x90
.LBB24_3:
	orq	$1, %rax
	leaq	256(%rax), %rdx
	testb	$2, %cl
	cmovneq	%rax, %rdx
	movq	%rcx, %rax
	lock		cmpxchgq	%rdx, 8(%rbx)
	je	.LBB24_6
.LBB24_4:
	movq	%rax, %rcx
.LBB24_1:
	testb	$12, %cl
	jne	.LBB24_9
	movq	%rcx, %rax
	testb	$1, %cl
	je	.LBB24_3
	lock		cmpxchgq	%rcx, 8(%rbx)
	jne	.LBB24_4
.LBB24_9:
	movq	%rbx, %rdi
	popq	%rbx
	.cfi_def_cfa_offset 8
	jmp	async_task::raw::RawTask<F,T,S,M>::drop_waker
.LBB24_6:
	.cfi_def_cfa_offset 16
	testb	$2, %cl
	jne	.LBB24_9
	testq	%rcx, %rcx
	js	.LBB24_10
	movq	40(%rbx), %rdi
	movq	%rbx, %rsi
	callq	<F as async_task::runnable::Schedule<M>>::schedule
	movq	%rbx, %rdi
	popq	%rbx
	.cfi_def_cfa_offset 8
	jmp	async_task::raw::RawTask<F,T,S,M>::drop_waker
.LBB24_10:
	.cfi_def_cfa_offset 16
	callq	*async_task::utils::abort@GOTPCREL(%rip)
.Lfunc_end24:
	.size	async_task::raw::RawTask<F,T,S,M>::wake, .Lfunc_end24-async_task::raw::RawTask<F,T,S,M>::wake
	.cfi_endproc

	.section	".text.async_task::raw::RawTask<F,T,S,M>::destroy","ax",@progbits
	.p2align	4, 0x90
	.type	async_task::raw::RawTask<F,T,S,M>::destroy,@function
async_task::raw::RawTask<F,T,S,M>::destroy:
.Lfunc_begin9:
	.cfi_startproc
	.cfi_personality 155, DW.ref.rust_eh_personality
	.cfi_lsda 27, .Lexception9
	pushq	%rbx
	.cfi_def_cfa_offset 16
	subq	$16, %rsp
	.cfi_def_cfa_offset 32
	.cfi_offset %rbx, -16
	movq	%rdi, %rbx
	movq	16(%rdi), %rax
	testq	%rax, %rax
	je	.LBB25_2
	movq	24(%rbx), %rdi
.Ltmp252:
	callq	*24(%rax)
.Ltmp253:
.LBB25_2:
	leaq	40(%rbx), %rdi
	movq	(%rdi), %rax
	lock		decq	(%rax)
	jne	.LBB25_4
	#MEMBARRIER
.Ltmp254:
	callq	alloc::sync::Arc<T,A>::drop_slow
.Ltmp255:
.LBB25_4:
	movl	$408, %esi
	movl	$8, %edx
	movq	%rbx, %rdi
	addq	$16, %rsp
	.cfi_def_cfa_offset 16
	popq	%rbx
	.cfi_def_cfa_offset 8
	jmpq	*__rust_dealloc@GOTPCREL(%rip)
.LBB25_5:
	.cfi_def_cfa_offset 32
.Ltmp256:
	movq	%rax, %rbx
.Ltmp257:
	leaq	15(%rsp), %rdi
	callq	*<async_task::utils::abort_on_panic::Bomb as core::ops::drop::Drop>::drop@GOTPCREL(%rip)
.Ltmp258:
	movq	%rbx, %rdi
	callq	_Unwind_Resume@PLT
.LBB25_7:
.Ltmp259:
	callq	*core::panicking::panic_in_cleanup@GOTPCREL(%rip)
.Lfunc_end25:
	.size	async_task::raw::RawTask<F,T,S,M>::destroy, .Lfunc_end25-async_task::raw::RawTask<F,T,S,M>::destroy
	.cfi_endproc
	.section	".gcc_except_table.async_task::raw::RawTask<F,T,S,M>::destroy","a",@progbits
	.p2align	2, 0x0
GCC_except_table25:
.Lexception9:
	.byte	255
	.byte	155
	.uleb128 .Lttbase9-.Lttbaseref9
.Lttbaseref9:
	.byte	1
	.uleb128 .Lcst_end9-.Lcst_begin9
.Lcst_begin9:
	.uleb128 .Ltmp252-.Lfunc_begin9
	.uleb128 .Ltmp255-.Ltmp252
	.uleb128 .Ltmp256-.Lfunc_begin9
	.byte	0
	.uleb128 .Ltmp257-.Lfunc_begin9
	.uleb128 .Ltmp258-.Ltmp257
	.uleb128 .Ltmp259-.Lfunc_begin9
	.byte	1
	.uleb128 .Ltmp258-.Lfunc_begin9
	.uleb128 .Lfunc_end25-.Ltmp258
	.byte	0
	.byte	0
.Lcst_end9:
	.byte	127
	.byte	0
	.p2align	2, 0x0
.Lttbase9:
	.byte	0
	.p2align	2, 0x0

	.section	".text.async_task::raw::RawTask<F,T,S,M>::destroy","ax",@progbits
	.p2align	4, 0x90
	.type	async_task::raw::RawTask<F,T,S,M>::destroy,@function
async_task::raw::RawTask<F,T,S,M>::destroy:
.Lfunc_begin10:
	.cfi_startproc
	.cfi_personality 155, DW.ref.rust_eh_personality
	.cfi_lsda 27, .Lexception10
	pushq	%rbx
	.cfi_def_cfa_offset 16
	subq	$16, %rsp
	.cfi_def_cfa_offset 32
	.cfi_offset %rbx, -16
	movq	%rdi, %rbx
	movq	16(%rdi), %rax
	testq	%rax, %rax
	je	.LBB26_2
	movq	24(%rbx), %rdi
.Ltmp260:
	callq	*24(%rax)
.Ltmp261:
.LBB26_2:
	leaq	40(%rbx), %rdi
	movq	(%rdi), %rax
	lock		decq	(%rax)
	jne	.LBB26_4
	#MEMBARRIER
.Ltmp262:
	callq	alloc::sync::Arc<T,A>::drop_slow
.Ltmp263:
.LBB26_4:
	movl	$280, %esi
	movl	$8, %edx
	movq	%rbx, %rdi
	addq	$16, %rsp
	.cfi_def_cfa_offset 16
	popq	%rbx
	.cfi_def_cfa_offset 8
	jmpq	*__rust_dealloc@GOTPCREL(%rip)
.LBB26_5:
	.cfi_def_cfa_offset 32
.Ltmp264:
	movq	%rax, %rbx
.Ltmp265:
	leaq	15(%rsp), %rdi
	callq	*<async_task::utils::abort_on_panic::Bomb as core::ops::drop::Drop>::drop@GOTPCREL(%rip)
.Ltmp266:
	movq	%rbx, %rdi
	callq	_Unwind_Resume@PLT
.LBB26_7:
.Ltmp267:
	callq	*core::panicking::panic_in_cleanup@GOTPCREL(%rip)
.Lfunc_end26:
	.size	async_task::raw::RawTask<F,T,S,M>::destroy, .Lfunc_end26-async_task::raw::RawTask<F,T,S,M>::destroy
	.cfi_endproc
	.section	".gcc_except_table.async_task::raw::RawTask<F,T,S,M>::destroy","a",@progbits
	.p2align	2, 0x0
GCC_except_table26:
.Lexception10:
	.byte	255
	.byte	155
	.uleb128 .Lttbase10-.Lttbaseref10
.Lttbaseref10:
	.byte	1
	.uleb128 .Lcst_end10-.Lcst_begin10
.Lcst_begin10:
	.uleb128 .Ltmp260-.Lfunc_begin10
	.uleb128 .Ltmp263-.Ltmp260
	.uleb128 .Ltmp264-.Lfunc_begin10
	.byte	0
	.uleb128 .Ltmp265-.Lfunc_begin10
	.uleb128 .Ltmp266-.Ltmp265
	.uleb128 .Ltmp267-.Lfunc_begin10
	.byte	1
	.uleb128 .Ltmp266-.Lfunc_begin10
	.uleb128 .Lfunc_end26-.Ltmp266
	.byte	0
	.byte	0
.Lcst_end10:
	.byte	127
	.byte	0
	.p2align	2, 0x0
.Lttbase10:
	.byte	0
	.p2align	2, 0x0

	.section	".text.async_task::raw::RawTask<F,T,S,M>::destroy","ax",@progbits
	.p2align	4, 0x90
	.type	async_task::raw::RawTask<F,T,S,M>::destroy,@function
async_task::raw::RawTask<F,T,S,M>::destroy:
.Lfunc_begin11:
	.cfi_startproc
	.cfi_personality 155, DW.ref.rust_eh_personality
	.cfi_lsda 27, .Lexception11
	pushq	%rbx
	.cfi_def_cfa_offset 16
	subq	$16, %rsp
	.cfi_def_cfa_offset 32
	.cfi_offset %rbx, -16
	movq	%rdi, %rbx
	movq	16(%rdi), %rax
	testq	%rax, %rax
	je	.LBB27_2
	movq	24(%rbx), %rdi
.Ltmp268:
	callq	*24(%rax)
.Ltmp269:
.LBB27_2:
	leaq	40(%rbx), %rdi
	movq	(%rdi), %rax
	lock		decq	(%rax)
	jne	.LBB27_4
	#MEMBARRIER
.Ltmp270:
	callq	alloc::sync::Arc<T,A>::drop_slow
.Ltmp271:
.LBB27_4:
	movl	$312, %esi
	movl	$8, %edx
	movq	%rbx, %rdi
	addq	$16, %rsp
	.cfi_def_cfa_offset 16
	popq	%rbx
	.cfi_def_cfa_offset 8
	jmpq	*__rust_dealloc@GOTPCREL(%rip)
.LBB27_5:
	.cfi_def_cfa_offset 32
.Ltmp272:
	movq	%rax, %rbx
.Ltmp273:
	leaq	15(%rsp), %rdi
	callq	*<async_task::utils::abort_on_panic::Bomb as core::ops::drop::Drop>::drop@GOTPCREL(%rip)
.Ltmp274:
	movq	%rbx, %rdi
	callq	_Unwind_Resume@PLT
.LBB27_7:
.Ltmp275:
	callq	*core::panicking::panic_in_cleanup@GOTPCREL(%rip)
.Lfunc_end27:
	.size	async_task::raw::RawTask<F,T,S,M>::destroy, .Lfunc_end27-async_task::raw::RawTask<F,T,S,M>::destroy
	.cfi_endproc
	.section	".gcc_except_table.async_task::raw::RawTask<F,T,S,M>::destroy","a",@progbits
	.p2align	2, 0x0
GCC_except_table27:
.Lexception11:
	.byte	255
	.byte	155
	.uleb128 .Lttbase11-.Lttbaseref11
.Lttbaseref11:
	.byte	1
	.uleb128 .Lcst_end11-.Lcst_begin11
.Lcst_begin11:
	.uleb128 .Ltmp268-.Lfunc_begin11
	.uleb128 .Ltmp271-.Ltmp268
	.uleb128 .Ltmp272-.Lfunc_begin11
	.byte	0
	.uleb128 .Ltmp273-.Lfunc_begin11
	.uleb128 .Ltmp274-.Ltmp273
	.uleb128 .Ltmp275-.Lfunc_begin11
	.byte	1
	.uleb128 .Ltmp274-.Lfunc_begin11
	.uleb128 .Lfunc_end27-.Ltmp274
	.byte	0
	.byte	0
.Lcst_end11:
	.byte	127
	.byte	0
	.p2align	2, 0x0
.Lttbase11:
	.byte	0
	.p2align	2, 0x0

	.section	".text.async_task::raw::RawTask<F,T,S,M>::drop_ref","ax",@progbits
	.p2align	4, 0x90
	.type	async_task::raw::RawTask<F,T,S,M>::drop_ref,@function
async_task::raw::RawTask<F,T,S,M>::drop_ref:
.Lfunc_begin12:
	.cfi_startproc
	.cfi_personality 155, DW.ref.rust_eh_personality
	.cfi_lsda 27, .Lexception12
	pushq	%rbx
	.cfi_def_cfa_offset 16
	subq	$16, %rsp
	.cfi_def_cfa_offset 32
	.cfi_offset %rbx, -16
	movq	$-256, %rax
	lock		xaddq	%rax, 8(%rdi)
	andq	$-240, %rax
	cmpq	$256, %rax
	jne	.LBB28_9
	movq	%rdi, %rbx
	movq	16(%rdi), %rax
	testq	%rax, %rax
	je	.LBB28_3
	movq	24(%rbx), %rdi
.Ltmp276:
	callq	*24(%rax)
.Ltmp277:
.LBB28_3:
	leaq	40(%rbx), %rdi
	movq	(%rdi), %rax
	lock		decq	(%rax)
	jne	.LBB28_5
	#MEMBARRIER
.Ltmp278:
	callq	alloc::sync::Arc<T,A>::drop_slow
.Ltmp279:
.LBB28_5:
	movl	$312, %esi
	movl	$8, %edx
	movq	%rbx, %rdi
	addq	$16, %rsp
	.cfi_def_cfa_offset 16
	popq	%rbx
	.cfi_def_cfa_offset 8
	jmpq	*__rust_dealloc@GOTPCREL(%rip)
.LBB28_9:
	.cfi_def_cfa_offset 32
	addq	$16, %rsp
	.cfi_def_cfa_offset 16
	popq	%rbx
	.cfi_def_cfa_offset 8
	retq
.LBB28_6:
	.cfi_def_cfa_offset 32
.Ltmp280:
	movq	%rax, %rbx
.Ltmp281:
	leaq	15(%rsp), %rdi
	callq	*<async_task::utils::abort_on_panic::Bomb as core::ops::drop::Drop>::drop@GOTPCREL(%rip)
.Ltmp282:
	movq	%rbx, %rdi
	callq	_Unwind_Resume@PLT
.LBB28_8:
.Ltmp283:
	callq	*core::panicking::panic_in_cleanup@GOTPCREL(%rip)
.Lfunc_end28:
	.size	async_task::raw::RawTask<F,T,S,M>::drop_ref, .Lfunc_end28-async_task::raw::RawTask<F,T,S,M>::drop_ref
	.cfi_endproc
	.section	".gcc_except_table.async_task::raw::RawTask<F,T,S,M>::drop_ref","a",@progbits
	.p2align	2, 0x0
GCC_except_table28:
.Lexception12:
	.byte	255
	.byte	155
	.uleb128 .Lttbase12-.Lttbaseref12
.Lttbaseref12:
	.byte	1
	.uleb128 .Lcst_end12-.Lcst_begin12
.Lcst_begin12:
	.uleb128 .Ltmp276-.Lfunc_begin12
	.uleb128 .Ltmp279-.Ltmp276
	.uleb128 .Ltmp280-.Lfunc_begin12
	.byte	0
	.uleb128 .Ltmp281-.Lfunc_begin12
	.uleb128 .Ltmp282-.Ltmp281
	.uleb128 .Ltmp283-.Lfunc_begin12
	.byte	1
	.uleb128 .Ltmp282-.Lfunc_begin12
	.uleb128 .Lfunc_end28-.Ltmp282
	.byte	0
	.byte	0
.Lcst_end12:
	.byte	127
	.byte	0
	.p2align	2, 0x0
.Lttbase12:
	.byte	0
	.p2align	2, 0x0

	.section	".text.async_task::raw::RawTask<F,T,S,M>::drop_ref","ax",@progbits
	.p2align	4, 0x90
	.type	async_task::raw::RawTask<F,T,S,M>::drop_ref,@function
async_task::raw::RawTask<F,T,S,M>::drop_ref:
.Lfunc_begin13:
	.cfi_startproc
	.cfi_personality 155, DW.ref.rust_eh_personality
	.cfi_lsda 27, .Lexception13
	pushq	%rbx
	.cfi_def_cfa_offset 16
	subq	$16, %rsp
	.cfi_def_cfa_offset 32
	.cfi_offset %rbx, -16
	movq	$-256, %rax
	lock		xaddq	%rax, 8(%rdi)
	andq	$-240, %rax
	cmpq	$256, %rax
	jne	.LBB29_9
	movq	%rdi, %rbx
	movq	16(%rdi), %rax
	testq	%rax, %rax
	je	.LBB29_3
	movq	24(%rbx), %rdi
.Ltmp284:
	callq	*24(%rax)
.Ltmp285:
.LBB29_3:
	leaq	40(%rbx), %rdi
	movq	(%rdi), %rax
	lock		decq	(%rax)
	jne	.LBB29_5
	#MEMBARRIER
.Ltmp286:
	callq	alloc::sync::Arc<T,A>::drop_slow
.Ltmp287:
.LBB29_5:
	movl	$408, %esi
	movl	$8, %edx
	movq	%rbx, %rdi
	addq	$16, %rsp
	.cfi_def_cfa_offset 16
	popq	%rbx
	.cfi_def_cfa_offset 8
	jmpq	*__rust_dealloc@GOTPCREL(%rip)
.LBB29_9:
	.cfi_def_cfa_offset 32
	addq	$16, %rsp
	.cfi_def_cfa_offset 16
	popq	%rbx
	.cfi_def_cfa_offset 8
	retq
.LBB29_6:
	.cfi_def_cfa_offset 32
.Ltmp288:
	movq	%rax, %rbx
.Ltmp289:
	leaq	15(%rsp), %rdi
	callq	*<async_task::utils::abort_on_panic::Bomb as core::ops::drop::Drop>::drop@GOTPCREL(%rip)
.Ltmp290:
	movq	%rbx, %rdi
	callq	_Unwind_Resume@PLT
.LBB29_8:
.Ltmp291:
	callq	*core::panicking::panic_in_cleanup@GOTPCREL(%rip)
.Lfunc_end29:
	.size	async_task::raw::RawTask<F,T,S,M>::drop_ref, .Lfunc_end29-async_task::raw::RawTask<F,T,S,M>::drop_ref
	.cfi_endproc
	.section	".gcc_except_table.async_task::raw::RawTask<F,T,S,M>::drop_ref","a",@progbits
	.p2align	2, 0x0
GCC_except_table29:
.Lexception13:
	.byte	255
	.byte	155
	.uleb128 .Lttbase13-.Lttbaseref13
.Lttbaseref13:
	.byte	1
	.uleb128 .Lcst_end13-.Lcst_begin13
.Lcst_begin13:
	.uleb128 .Ltmp284-.Lfunc_begin13
	.uleb128 .Ltmp287-.Ltmp284
	.uleb128 .Ltmp288-.Lfunc_begin13
	.byte	0
	.uleb128 .Ltmp289-.Lfunc_begin13
	.uleb128 .Ltmp290-.Ltmp289
	.uleb128 .Ltmp291-.Lfunc_begin13
	.byte	1
	.uleb128 .Ltmp290-.Lfunc_begin13
	.uleb128 .Lfunc_end29-.Ltmp290
	.byte	0
	.byte	0
.Lcst_end13:
	.byte	127
	.byte	0
	.p2align	2, 0x0
.Lttbase13:
	.byte	0
	.p2align	2, 0x0

	.section	".text.async_task::raw::RawTask<F,T,S,M>::drop_ref","ax",@progbits
	.p2align	4, 0x90
	.type	async_task::raw::RawTask<F,T,S,M>::drop_ref,@function
async_task::raw::RawTask<F,T,S,M>::drop_ref:
.Lfunc_begin14:
	.cfi_startproc
	.cfi_personality 155, DW.ref.rust_eh_personality
	.cfi_lsda 27, .Lexception14
	pushq	%rbx
	.cfi_def_cfa_offset 16
	subq	$16, %rsp
	.cfi_def_cfa_offset 32
	.cfi_offset %rbx, -16
	movq	$-256, %rax
	lock		xaddq	%rax, 8(%rdi)
	andq	$-240, %rax
	cmpq	$256, %rax
	jne	.LBB30_9
	movq	%rdi, %rbx
	movq	16(%rdi), %rax
	testq	%rax, %rax
	je	.LBB30_3
	movq	24(%rbx), %rdi
.Ltmp292:
	callq	*24(%rax)
.Ltmp293:
.LBB30_3:
	leaq	40(%rbx), %rdi
	movq	(%rdi), %rax
	lock		decq	(%rax)
	jne	.LBB30_5
	#MEMBARRIER
.Ltmp294:
	callq	alloc::sync::Arc<T,A>::drop_slow
.Ltmp295:
.LBB30_5:
	movl	$280, %esi
	movl	$8, %edx
	movq	%rbx, %rdi
	addq	$16, %rsp
	.cfi_def_cfa_offset 16
	popq	%rbx
	.cfi_def_cfa_offset 8
	jmpq	*__rust_dealloc@GOTPCREL(%rip)
.LBB30_9:
	.cfi_def_cfa_offset 32
	addq	$16, %rsp
	.cfi_def_cfa_offset 16
	popq	%rbx
	.cfi_def_cfa_offset 8
	retq
.LBB30_6:
	.cfi_def_cfa_offset 32
.Ltmp296:
	movq	%rax, %rbx
.Ltmp297:
	leaq	15(%rsp), %rdi
	callq	*<async_task::utils::abort_on_panic::Bomb as core::ops::drop::Drop>::drop@GOTPCREL(%rip)
.Ltmp298:
	movq	%rbx, %rdi
	callq	_Unwind_Resume@PLT
.LBB30_8:
.Ltmp299:
	callq	*core::panicking::panic_in_cleanup@GOTPCREL(%rip)
.Lfunc_end30:
	.size	async_task::raw::RawTask<F,T,S,M>::drop_ref, .Lfunc_end30-async_task::raw::RawTask<F,T,S,M>::drop_ref
	.cfi_endproc
	.section	".gcc_except_table.async_task::raw::RawTask<F,T,S,M>::drop_ref","a",@progbits
	.p2align	2, 0x0
GCC_except_table30:
.Lexception14:
	.byte	255
	.byte	155
	.uleb128 .Lttbase14-.Lttbaseref14
.Lttbaseref14:
	.byte	1
	.uleb128 .Lcst_end14-.Lcst_begin14
.Lcst_begin14:
	.uleb128 .Ltmp292-.Lfunc_begin14
	.uleb128 .Ltmp295-.Ltmp292
	.uleb128 .Ltmp296-.Lfunc_begin14
	.byte	0
	.uleb128 .Ltmp297-.Lfunc_begin14
	.uleb128 .Ltmp298-.Ltmp297
	.uleb128 .Ltmp299-.Lfunc_begin14
	.byte	1
	.uleb128 .Ltmp298-.Lfunc_begin14
	.uleb128 .Lfunc_end30-.Ltmp298
	.byte	0
	.byte	0
.Lcst_end14:
	.byte	127
	.byte	0
	.p2align	2, 0x0
.Lttbase14:
	.byte	0
	.p2align	2, 0x0

	.section	".text.async_task::raw::RawTask<F,T,S,M>::schedule","ax",@progbits
	.p2align	4, 0x90
	.type	async_task::raw::RawTask<F,T,S,M>::schedule,@function
async_task::raw::RawTask<F,T,S,M>::schedule:
.Lfunc_begin15:
	.cfi_startproc
	.cfi_personality 155, DW.ref.rust_eh_personality
	.cfi_lsda 27, .Lexception15
	pushq	%r14
	.cfi_def_cfa_offset 16
	pushq	%rbx
	.cfi_def_cfa_offset 24
	pushq	%rax
	.cfi_def_cfa_offset 32
	.cfi_offset %rbx, -24
	.cfi_offset %r14, -16
	movl	$256, %eax
	lock		xaddq	%rax, 8(%rdi)
	testq	%rax, %rax
	js	.LBB31_6
	movq	%rdi, %rbx
	movq	40(%rdi), %rdi
.Ltmp300:
	movq	%rbx, %rsi
	callq	<F as async_task::runnable::Schedule<M>>::schedule
.Ltmp301:
	movq	%rbx, %rdi
	addq	$8, %rsp
	.cfi_def_cfa_offset 24
	popq	%rbx
	.cfi_def_cfa_offset 16
	popq	%r14
	.cfi_def_cfa_offset 8
	jmp	async_task::raw::RawTask<F,T,S,M>::drop_waker
.LBB31_6:
	.cfi_def_cfa_offset 32
	callq	*async_task::utils::abort@GOTPCREL(%rip)
.LBB31_3:
.Ltmp302:
	movq	%rax, %r14
.Ltmp303:
	movq	%rbx, %rdi
	callq	async_task::raw::RawTask<F,T,S,M>::drop_waker
.Ltmp304:
	movq	%r14, %rdi
	callq	_Unwind_Resume@PLT
.LBB31_5:
.Ltmp305:
	callq	*core::panicking::panic_in_cleanup@GOTPCREL(%rip)
.Lfunc_end31:
	.size	async_task::raw::RawTask<F,T,S,M>::schedule, .Lfunc_end31-async_task::raw::RawTask<F,T,S,M>::schedule
	.cfi_endproc
	.section	".gcc_except_table.async_task::raw::RawTask<F,T,S,M>::schedule","a",@progbits
	.p2align	2, 0x0
GCC_except_table31:
.Lexception15:
	.byte	255
	.byte	155
	.uleb128 .Lttbase15-.Lttbaseref15
.Lttbaseref15:
	.byte	1
	.uleb128 .Lcst_end15-.Lcst_begin15
.Lcst_begin15:
	.uleb128 .Ltmp300-.Lfunc_begin15
	.uleb128 .Ltmp301-.Ltmp300
	.uleb128 .Ltmp302-.Lfunc_begin15
	.byte	0
	.uleb128 .Ltmp301-.Lfunc_begin15
	.uleb128 .Ltmp303-.Ltmp301
	.byte	0
	.byte	0
	.uleb128 .Ltmp303-.Lfunc_begin15
	.uleb128 .Ltmp304-.Ltmp303
	.uleb128 .Ltmp305-.Lfunc_begin15
	.byte	1
	.uleb128 .Ltmp304-.Lfunc_begin15
	.uleb128 .Lfunc_end31-.Ltmp304
	.byte	0
	.byte	0
.Lcst_end15:
	.byte	127
	.byte	0
	.p2align	2, 0x0
.Lttbase15:
	.byte	0
	.p2align	2, 0x0

	.section	".text.async_task::raw::RawTask<F,T,S,M>::schedule","ax",@progbits
	.p2align	4, 0x90
	.type	async_task::raw::RawTask<F,T,S,M>::schedule,@function
async_task::raw::RawTask<F,T,S,M>::schedule:
.Lfunc_begin16:
	.cfi_startproc
	.cfi_personality 155, DW.ref.rust_eh_personality
	.cfi_lsda 27, .Lexception16
	pushq	%r14
	.cfi_def_cfa_offset 16
	pushq	%rbx
	.cfi_def_cfa_offset 24
	pushq	%rax
	.cfi_def_cfa_offset 32
	.cfi_offset %rbx, -24
	.cfi_offset %r14, -16
	movl	$256, %eax
	lock		xaddq	%rax, 8(%rdi)
	testq	%rax, %rax
	js	.LBB32_6
	movq	%rdi, %rbx
	movq	40(%rdi), %rdi
.Ltmp306:
	movq	%rbx, %rsi
	callq	<F as async_task::runnable::Schedule<M>>::schedule
.Ltmp307:
	movq	%rbx, %rdi
	addq	$8, %rsp
	.cfi_def_cfa_offset 24
	popq	%rbx
	.cfi_def_cfa_offset 16
	popq	%r14
	.cfi_def_cfa_offset 8
	jmp	async_task::raw::RawTask<F,T,S,M>::drop_waker
.LBB32_6:
	.cfi_def_cfa_offset 32
	callq	*async_task::utils::abort@GOTPCREL(%rip)
.LBB32_3:
.Ltmp308:
	movq	%rax, %r14
.Ltmp309:
	movq	%rbx, %rdi
	callq	async_task::raw::RawTask<F,T,S,M>::drop_waker
.Ltmp310:
	movq	%r14, %rdi
	callq	_Unwind_Resume@PLT
.LBB32_5:
.Ltmp311:
	callq	*core::panicking::panic_in_cleanup@GOTPCREL(%rip)
.Lfunc_end32:
	.size	async_task::raw::RawTask<F,T,S,M>::schedule, .Lfunc_end32-async_task::raw::RawTask<F,T,S,M>::schedule
	.cfi_endproc
	.section	".gcc_except_table.async_task::raw::RawTask<F,T,S,M>::schedule","a",@progbits
	.p2align	2, 0x0
GCC_except_table32:
.Lexception16:
	.byte	255
	.byte	155
	.uleb128 .Lttbase16-.Lttbaseref16
.Lttbaseref16:
	.byte	1
	.uleb128 .Lcst_end16-.Lcst_begin16
.Lcst_begin16:
	.uleb128 .Ltmp306-.Lfunc_begin16
	.uleb128 .Ltmp307-.Ltmp306
	.uleb128 .Ltmp308-.Lfunc_begin16
	.byte	0
	.uleb128 .Ltmp307-.Lfunc_begin16
	.uleb128 .Ltmp309-.Ltmp307
	.byte	0
	.byte	0
	.uleb128 .Ltmp309-.Lfunc_begin16
	.uleb128 .Ltmp310-.Ltmp309
	.uleb128 .Ltmp311-.Lfunc_begin16
	.byte	1
	.uleb128 .Ltmp310-.Lfunc_begin16
	.uleb128 .Lfunc_end32-.Ltmp310
	.byte	0
	.byte	0
.Lcst_end16:
	.byte	127
	.byte	0
	.p2align	2, 0x0
.Lttbase16:
	.byte	0
	.p2align	2, 0x0

	.section	".text.async_task::raw::RawTask<F,T,S,M>::schedule","ax",@progbits
	.p2align	4, 0x90
	.type	async_task::raw::RawTask<F,T,S,M>::schedule,@function
async_task::raw::RawTask<F,T,S,M>::schedule:
.Lfunc_begin17:
	.cfi_startproc
	.cfi_personality 155, DW.ref.rust_eh_personality
	.cfi_lsda 27, .Lexception17
	pushq	%r14
	.cfi_def_cfa_offset 16
	pushq	%rbx
	.cfi_def_cfa_offset 24
	pushq	%rax
	.cfi_def_cfa_offset 32
	.cfi_offset %rbx, -24
	.cfi_offset %r14, -16
	movl	$256, %eax
	lock		xaddq	%rax, 8(%rdi)
	testq	%rax, %rax
	js	.LBB33_6
	movq	%rdi, %rbx
	movq	40(%rdi), %rdi
.Ltmp312:
	movq	%rbx, %rsi
	callq	<F as async_task::runnable::Schedule<M>>::schedule
.Ltmp313:
	movq	%rbx, %rdi
	addq	$8, %rsp
	.cfi_def_cfa_offset 24
	popq	%rbx
	.cfi_def_cfa_offset 16
	popq	%r14
	.cfi_def_cfa_offset 8
	jmp	async_task::raw::RawTask<F,T,S,M>::drop_waker
.LBB33_6:
	.cfi_def_cfa_offset 32
	callq	*async_task::utils::abort@GOTPCREL(%rip)
.LBB33_3:
.Ltmp314:
	movq	%rax, %r14
.Ltmp315:
	movq	%rbx, %rdi
	callq	async_task::raw::RawTask<F,T,S,M>::drop_waker
.Ltmp316:
	movq	%r14, %rdi
	callq	_Unwind_Resume@PLT
.LBB33_5:
.Ltmp317:
	callq	*core::panicking::panic_in_cleanup@GOTPCREL(%rip)
.Lfunc_end33:
	.size	async_task::raw::RawTask<F,T,S,M>::schedule, .Lfunc_end33-async_task::raw::RawTask<F,T,S,M>::schedule
	.cfi_endproc
	.section	".gcc_except_table.async_task::raw::RawTask<F,T,S,M>::schedule","a",@progbits
	.p2align	2, 0x0
GCC_except_table33:
.Lexception17:
	.byte	255
	.byte	155
	.uleb128 .Lttbase17-.Lttbaseref17
.Lttbaseref17:
	.byte	1
	.uleb128 .Lcst_end17-.Lcst_begin17
.Lcst_begin17:
	.uleb128 .Ltmp312-.Lfunc_begin17
	.uleb128 .Ltmp313-.Ltmp312
	.uleb128 .Ltmp314-.Lfunc_begin17
	.byte	0
	.uleb128 .Ltmp313-.Lfunc_begin17
	.uleb128 .Ltmp315-.Ltmp313
	.byte	0
	.byte	0
	.uleb128 .Ltmp315-.Lfunc_begin17
	.uleb128 .Ltmp316-.Ltmp315
	.uleb128 .Ltmp317-.Lfunc_begin17
	.byte	1
	.uleb128 .Ltmp316-.Lfunc_begin17
	.uleb128 .Lfunc_end33-.Ltmp316
	.byte	0
	.byte	0
.Lcst_end17:
	.byte	127
	.byte	0
	.p2align	2, 0x0
.Lttbase17:
	.byte	0
	.p2align	2, 0x0

	.section	".text.async_task::task::Task<T,M>::set_detached","ax",@progbits
	.p2align	4, 0x90
	.type	async_task::task::Task<T,M>::set_detached,@function
async_task::task::Task<T,M>::set_detached:
.Lfunc_begin18:
	.cfi_startproc
	.cfi_personality 155, DW.ref.rust_eh_personality
	.cfi_lsda 27, .Lexception18
	pushq	%rbp
	.cfi_def_cfa_offset 16
	pushq	%r15
	.cfi_def_cfa_offset 24
	pushq	%r14
	.cfi_def_cfa_offset 32
	pushq	%r13
	.cfi_def_cfa_offset 40
	pushq	%r12
	.cfi_def_cfa_offset 48
	pushq	%rbx
	.cfi_def_cfa_offset 56
	subq	$40, %rsp
	.cfi_def_cfa_offset 96
	.cfi_offset %rbx, -56
	.cfi_offset %r12, -48
	.cfi_offset %r13, -40
	.cfi_offset %r14, -32
	.cfi_offset %r15, -24
	.cfi_offset %rbp, -16
	movq	$0, 8(%rsp)
	movl	$257, %ecx
	movl	$273, %eax
	lock		cmpxchgq	%rcx, 8(%rsi)
	movq	%rdi, %rbx
	je	.LBB34_25
	movq	%rsi, %r14
	movq	%rbx, 32(%rsp)
	jmp	.LBB34_2
	.p2align	4, 0x90
.LBB34_11:
	movq	$1, 8(%rsp)
	movq	%rbx, 16(%rsp)
	movq	%r12, 24(%rsp)
	movq	%rbp, %rax
.LBB34_2:
	movl	$265, %esi
	jmp	.LBB34_3
	.p2align	4, 0x90
.LBB34_20:
	movq	%rcx, %rdx
	andq	$-17, %rdx
	testq	$-248, %rcx
	cmoveq	%rsi, %rdx
	movq	%rcx, %rax
	lock		cmpxchgq	%rdx, 8(%r14)
	je	.LBB34_21
.LBB34_3:
	movq	%rax, %rcx
	andl	$12, %eax
	cmpl	$4, %eax
	jne	.LBB34_20
	movq	%rcx, %rbp
	orq	$8, %rbp
	movq	%rcx, %rax
	lock		cmpxchgq	%rbp, 8(%r14)
	jne	.LBB34_3
	movq	(%r14), %rax
.Ltmp323:
	movq	%r14, %rdi
	callq	*16(%rax)
.Ltmp324:
	movq	(%rax), %rbx
	movq	8(%rax), %r12
	cmpq	$0, 8(%rsp)
	je	.LBB34_11
	movq	16(%rsp), %r15
	testq	%r15, %r15
	je	.LBB34_11
	movq	24(%rsp), %r13
.Ltmp326:
	movq	%r15, %rdi
	callq	*(%r13)
.Ltmp327:
	movq	8(%r13), %rsi
	testq	%rsi, %rsi
	je	.LBB34_11
	movq	16(%r13), %rdx
	movq	%r15, %rdi
	callq	*__rust_dealloc@GOTPCREL(%rip)
	jmp	.LBB34_11
.LBB34_21:
	cmpq	$255, %rcx
	movq	32(%rsp), %rbx
	ja	.LBB34_25
	movq	(%r14), %rax
	testb	$8, %cl
	jne	.LBB34_24
.Ltmp320:
	movq	%r14, %rdi
	xorl	%esi, %esi
	callq	*(%rax)
.Ltmp321:
	jmp	.LBB34_25
.LBB34_24:
.Ltmp318:
	movq	%r14, %rdi
	callq	*32(%rax)
.Ltmp319:
.LBB34_25:
	movq	24(%rsp), %rax
	movq	%rax, 16(%rbx)
	movq	8(%rsp), %rax
	movq	%rax, (%rbx)
	movq	16(%rsp), %rax
	movq	%rax, 8(%rbx)
	addq	$40, %rsp
	.cfi_def_cfa_offset 56
	popq	%rbx
	.cfi_def_cfa_offset 48
	popq	%r12
	.cfi_def_cfa_offset 40
	popq	%r13
	.cfi_def_cfa_offset 32
	popq	%r14
	.cfi_def_cfa_offset 24
	popq	%r15
	.cfi_def_cfa_offset 16
	popq	%rbp
	.cfi_def_cfa_offset 8
	retq
.LBB34_13:
	.cfi_def_cfa_offset 96
.Ltmp322:
	jmp	.LBB34_14
.LBB34_17:
.Ltmp328:
	movq	%rax, %r14
	movq	8(%r13), %rsi
	testq	%rsi, %rsi
	je	.LBB34_19
	movq	16(%r13), %rdx
	movq	%r15, %rdi
	callq	*__rust_dealloc@GOTPCREL(%rip)
.LBB34_19:
	movq	$1, 8(%rsp)
	movq	%rbx, 16(%rsp)
	movq	%r12, 24(%rsp)
	jmp	.LBB34_15
.LBB34_12:
.Ltmp325:
.LBB34_14:
	movq	%rax, %r14
.LBB34_15:
.Ltmp329:
	leaq	8(%rsp), %rdi
	callq	core::ptr::drop_in_place<core::option::Option<core::result::Result<(),alloc::boxed::Box<dyn core::any::Any+core::marker::Send>>>>
.Ltmp330:
	movq	%r14, %rdi
	callq	_Unwind_Resume@PLT
.LBB34_26:
.Ltmp331:
	callq	*core::panicking::panic_in_cleanup@GOTPCREL(%rip)
.Lfunc_end34:
	.size	async_task::task::Task<T,M>::set_detached, .Lfunc_end34-async_task::task::Task<T,M>::set_detached
	.cfi_endproc
	.section	".gcc_except_table.async_task::task::Task<T,M>::set_detached","a",@progbits
	.p2align	2, 0x0
GCC_except_table34:
.Lexception18:
	.byte	255
	.byte	155
	.uleb128 .Lttbase18-.Lttbaseref18
.Lttbaseref18:
	.byte	1
	.uleb128 .Lcst_end18-.Lcst_begin18
.Lcst_begin18:
	.uleb128 .Ltmp323-.Lfunc_begin18
	.uleb128 .Ltmp324-.Ltmp323
	.uleb128 .Ltmp325-.Lfunc_begin18
	.byte	0
	.uleb128 .Ltmp326-.Lfunc_begin18
	.uleb128 .Ltmp327-.Ltmp326
	.uleb128 .Ltmp328-.Lfunc_begin18
	.byte	0
	.uleb128 .Ltmp320-.Lfunc_begin18
	.uleb128 .Ltmp319-.Ltmp320
	.uleb128 .Ltmp322-.Lfunc_begin18
	.byte	0
	.uleb128 .Ltmp329-.Lfunc_begin18
	.uleb128 .Ltmp330-.Ltmp329
	.uleb128 .Ltmp331-.Lfunc_begin18
	.byte	1
	.uleb128 .Ltmp330-.Lfunc_begin18
	.uleb128 .Lfunc_end34-.Ltmp330
	.byte	0
	.byte	0
.Lcst_end18:
	.byte	127
	.byte	0
	.p2align	2, 0x0
.Lttbase18:
	.byte	0
	.p2align	2, 0x0

	.section	".text.async_task::task::Task<T,M>::detach","ax",@progbits
	.p2align	4, 0x90
	.type	async_task::task::Task<T,M>::detach,@function
async_task::task::Task<T,M>::detach:
.Lfunc_begin19:
	.cfi_startproc
	.cfi_personality 155, DW.ref.rust_eh_personality
	.cfi_lsda 27, .Lexception19
	pushq	%r15
	.cfi_def_cfa_offset 16
	pushq	%r14
	.cfi_def_cfa_offset 24
	pushq	%rbx
	.cfi_def_cfa_offset 32
	subq	$32, %rsp
	.cfi_def_cfa_offset 64
	.cfi_offset %rbx, -32
	.cfi_offset %r14, -24
	.cfi_offset %r15, -16
	movq	%rdi, %rsi
	movq	%rdi, (%rsp)
.Ltmp332:
	leaq	8(%rsp), %rdi
	callq	async_task::task::Task<T,M>::set_detached
.Ltmp333:
	cmpq	$0, 8(%rsp)
	je	.LBB35_11
	movq	16(%rsp), %r14
	testq	%r14, %r14
	je	.LBB35_11
	movq	24(%rsp), %r15
.Ltmp338:
	movq	%r14, %rdi
	callq	*(%r15)
.Ltmp339:
	movq	8(%r15), %rsi
	testq	%rsi, %rsi
	je	.LBB35_11
	movq	16(%r15), %rdx
	movq	%r14, %rdi
	addq	$32, %rsp
	.cfi_def_cfa_offset 32
	popq	%rbx
	.cfi_def_cfa_offset 24
	popq	%r14
	.cfi_def_cfa_offset 16
	popq	%r15
	.cfi_def_cfa_offset 8
	jmpq	*__rust_dealloc@GOTPCREL(%rip)
.LBB35_11:
	.cfi_def_cfa_offset 64
	addq	$32, %rsp
	.cfi_def_cfa_offset 32
	popq	%rbx
	.cfi_def_cfa_offset 24
	popq	%r14
	.cfi_def_cfa_offset 16
	popq	%r15
	.cfi_def_cfa_offset 8
	retq
.LBB35_6:
	.cfi_def_cfa_offset 64
.Ltmp340:
	movq	%rax, %rbx
	movq	8(%r15), %rsi
	testq	%rsi, %rsi
	je	.LBB35_8
	movq	16(%r15), %rdx
	movq	%r14, %rdi
	callq	*__rust_dealloc@GOTPCREL(%rip)
	movq	%rbx, %rdi
	callq	_Unwind_Resume@PLT
.LBB35_9:
.Ltmp334:
	movq	%rax, %rbx
.Ltmp335:
	movq	%rsp, %rdi
	callq	core::ptr::drop_in_place<async_task::task::Task<()>>
.Ltmp336:
.LBB35_8:
	movq	%rbx, %rdi
	callq	_Unwind_Resume@PLT
.LBB35_10:
.Ltmp337:
	callq	*core::panicking::panic_in_cleanup@GOTPCREL(%rip)
.Lfunc_end35:
	.size	async_task::task::Task<T,M>::detach, .Lfunc_end35-async_task::task::Task<T,M>::detach
	.cfi_endproc
	.section	".gcc_except_table.async_task::task::Task<T,M>::detach","a",@progbits
	.p2align	2, 0x0
GCC_except_table35:
.Lexception19:
	.byte	255
	.byte	155
	.uleb128 .Lttbase19-.Lttbaseref19
.Lttbaseref19:
	.byte	1
	.uleb128 .Lcst_end19-.Lcst_begin19
.Lcst_begin19:
	.uleb128 .Ltmp332-.Lfunc_begin19
	.uleb128 .Ltmp333-.Ltmp332
	.uleb128 .Ltmp334-.Lfunc_begin19
	.byte	0
	.uleb128 .Ltmp338-.Lfunc_begin19
	.uleb128 .Ltmp339-.Ltmp338
	.uleb128 .Ltmp340-.Lfunc_begin19
	.byte	0
	.uleb128 .Ltmp339-.Lfunc_begin19
	.uleb128 .Ltmp335-.Ltmp339
	.byte	0
	.byte	0
	.uleb128 .Ltmp335-.Lfunc_begin19
	.uleb128 .Ltmp336-.Ltmp335
	.uleb128 .Ltmp337-.Lfunc_begin19
	.byte	1
	.uleb128 .Ltmp336-.Lfunc_begin19
	.uleb128 .Lfunc_end35-.Ltmp336
	.byte	0
	.byte	0
.Lcst_end19:
	.byte	127
	.byte	0
	.p2align	2, 0x0
.Lttbase19:
	.byte	0
	.p2align	2, 0x0

	.section	".text.bevy_tasks::single_threaded_task_pool::Scope<T>::spawn_on_scope","ax",@progbits
	.p2align	4, 0x90
	.type	bevy_tasks::single_threaded_task_pool::Scope<T>::spawn_on_scope,@function
bevy_tasks::single_threaded_task_pool::Scope<T>::spawn_on_scope:
.Lfunc_begin20:
	.cfi_startproc
	.cfi_personality 155, DW.ref.rust_eh_personality
	.cfi_lsda 27, .Lexception20
	pushq	%rbp
	.cfi_def_cfa_offset 16
	pushq	%r15
	.cfi_def_cfa_offset 24
	pushq	%r14
	.cfi_def_cfa_offset 32
	pushq	%r13
	.cfi_def_cfa_offset 40
	pushq	%r12
	.cfi_def_cfa_offset 48
	pushq	%rbx
	.cfi_def_cfa_offset 56
	subq	$568, %rsp
	.cfi_def_cfa_offset 624
	.cfi_offset %rbx, -56
	.cfi_offset %r12, -48
	.cfi_offset %r13, -40
	.cfi_offset %r14, -32
	.cfi_offset %r15, -24
	.cfi_offset %rbp, -16
	movq	%rsi, %r15
	movq	%rdi, %r14
	movq	__rust_no_alloc_shim_is_unstable@GOTPCREL(%rip), %rax
	movzbl	(%rax), %eax
	movl	$32, %edi
	movl	$8, %esi
	callq	*__rust_alloc@GOTPCREL(%rip)
	testq	%rax, %rax
	je	.LBB36_28
	movq	%rax, %rbx
	movq	$1, (%rax)
	movq	$1, 8(%rax)
	movq	$0, 16(%rax)
	movb	$0, 24(%rax)
	movq	8(%r14), %r12
	cmpq	$0, (%r12)
	jne	.LBB36_29
	movq	$-1, (%r12)
	incq	(%rbx)
	je	.LBB36_32
	movq	24(%r12), %rsi
	cmpq	8(%r12), %rsi
	jne	.LBB36_6
.Ltmp344:
	leaq	8(%r12), %rdi
	callq	alloc::raw_vec::RawVec<T,A>::reserve_for_push
.Ltmp345:
	movq	24(%r12), %rsi
.LBB36_6:
	movq	16(%r12), %rax
	movq	%rbx, (%rax,%rsi,8)
	incq	%rsi
	movq	%rsi, 24(%r12)
	incq	(%r12)
	movq	32(%r15), %rax
	movq	%rax, 88(%rsp)
	movups	(%r15), %xmm0
	movups	16(%r15), %xmm1
	movups	%xmm1, 72(%rsp)
	movups	%xmm0, 56(%rsp)
	movq	%rbx, 48(%rsp)
	movb	$0, 96(%rsp)
	movq	(%r14), %r15
.Ltmp347:
	movq	%r15, %rdi
	callq	*async_executor::Executor::state@GOTPCREL(%rip)
.Ltmp348:
	movq	(%rax), %r13
	leaq	704(%r13), %rbx
	movl	$1, %ecx
	xorl	%eax, %eax
	lock		cmpxchgl	%ecx, 704(%r13)
	je	.LBB36_9
.Ltmp349:
	movq	%rbx, %rdi
	callq	*std::sys::unix::locks::futex_mutex::Mutex::lock_contended@GOTPCREL(%rip)
.Ltmp350:
.LBB36_9:
	movq	std::panicking::panic_count::GLOBAL_PANIC_COUNT@GOTPCREL(%rip), %rax
	movq	(%rax), %rax
	shlq	%rax
	testq	%rax, %rax
	je	.LBB36_23
.Ltmp351:
	callq	*std::panicking::panic_count::is_zero_slow_path@GOTPCREL(%rip)
.Ltmp352:
	movl	%eax, %ebp
	xorb	$1, %bpl
	movzbl	708(%r13), %eax
	testb	%al, %al
	jne	.LBB36_24
.LBB36_12:
	movq	744(%r13), %r14
.Ltmp360:
	movq	%r15, %rdi
	callq	*async_executor::Executor::state@GOTPCREL(%rip)
.Ltmp361:
	movq	(%rax), %rax
	lock		incq	(%rax)
	jle	.LBB36_32
	movups	88(%rsp), %xmm0
	movups	%xmm0, 312(%rsp)
	movups	72(%rsp), %xmm0
	movups	%xmm0, 296(%rsp)
	movups	8(%rsp), %xmm0
	movups	24(%rsp), %xmm1
	movups	40(%rsp), %xmm2
	movups	56(%rsp), %xmm3
	movups	%xmm3, 280(%rsp)
	movups	%xmm2, 264(%rsp)
	movups	%xmm1, 248(%rsp)
	movups	%xmm0, 232(%rsp)
	movq	%r14, 216(%rsp)
	movq	%rax, 224(%rsp)
	movb	$0, 328(%rsp)
.Ltmp363:
	movq	%r15, %rdi
	callq	*async_executor::LocalExecutor::schedule@GOTPCREL(%rip)
.Ltmp364:
	movq	%rax, %r12
	leaq	336(%rsp), %rdi
	leaq	104(%rsp), %rsi
	movl	$232, %edx
	callq	*memcpy@GOTPCREL(%rip)
	movq	%r12, (%rsp)
	movq	__rust_no_alloc_shim_is_unstable@GOTPCREL(%rip), %rax
	movzbl	(%rax), %eax
	movl	$280, %edi
	movl	$8, %esi
	callq	*__rust_alloc@GOTPCREL(%rip)
	testq	%rax, %rax
	je	.LBB36_30
	movq	%rax, %r15
	movq	%rax, %rdi
	addq	$48, %rdi
	leaq	.Lanon.f381d664011984525626c761c6d28b35.15(%rip), %rax
	movq	%rax, (%r15)
	movq	$273, 8(%r15)
	movq	$0, 16(%r15)
	movb	$1, 32(%r15)
	movq	%r12, 40(%r15)
	leaq	104(%rsp), %rsi
	movl	$232, %edx
	callq	*memcpy@GOTPCREL(%rip)
	movq	%r15, 104(%rsp)
	movq	%r15, 336(%rsp)
	movl	$256, %eax
	lock		xaddq	%rax, 8(%r15)
	testq	%rax, %rax
	js	.LBB36_31
	leaq	712(%r13), %rdi
	movb	$1, %r12b
.Ltmp368:
	leaq	.Lanon.f381d664011984525626c761c6d28b35.14(%rip), %rdx
	movq	%r14, %rsi
	movq	%r15, %rcx
	callq	slab::VacantEntry<T>::insert
.Ltmp369:
	movq	(%r15), %rax
	xorl	%r12d, %r12d
.Ltmp370:
	movq	%r15, %rdi
	xorl	%esi, %esi
	callq	*(%rax)
.Ltmp371:
	testb	%bpl, %bpl
	jne	.LBB36_21
	movabsq	$9223372036854775807, %rax
	movq	std::panicking::panic_count::GLOBAL_PANIC_COUNT@GOTPCREL(%rip), %rcx
	movq	(%rcx), %rcx
	testq	%rax, %rcx
	jne	.LBB36_26
.LBB36_21:
	xorl	%eax, %eax
	xchgl	%eax, (%rbx)
	cmpl	$2, %eax
	je	.LBB36_25
.LBB36_22:
	movq	%r15, %rdi
	addq	$568, %rsp
	.cfi_def_cfa_offset 56
	popq	%rbx
	.cfi_def_cfa_offset 48
	popq	%r12
	.cfi_def_cfa_offset 40
	popq	%r13
	.cfi_def_cfa_offset 32
	popq	%r14
	.cfi_def_cfa_offset 24
	popq	%r15
	.cfi_def_cfa_offset 16
	popq	%rbp
	.cfi_def_cfa_offset 8
	jmp	async_task::task::Task<T,M>::detach
.LBB36_23:
	.cfi_def_cfa_offset 624
	xorl	%ebp, %ebp
	movzbl	708(%r13), %eax
	testb	%al, %al
	je	.LBB36_12
.LBB36_24:
	movq	%rbx, 336(%rsp)
	movb	%bpl, 344(%rsp)
.Ltmp354:
	leaq	.Lanon.f381d664011984525626c761c6d28b35.158(%rip), %rdi
	leaq	.Lanon.f381d664011984525626c761c6d28b35.161(%rip), %rcx
	leaq	.Lanon.f381d664011984525626c761c6d28b35.108(%rip), %r8
	leaq	336(%rsp), %rdx
	movl	$43, %esi
	callq	*core::result::unwrap_failed@GOTPCREL(%rip)
.Ltmp355:
	jmp	.LBB36_32
.LBB36_25:
	movq	%rbx, %rdi
	callq	*std::sys::unix::locks::futex_mutex::Mutex::wake@GOTPCREL(%rip)
	jmp	.LBB36_22
.LBB36_26:
	callq	*std::panicking::panic_count::is_zero_slow_path@GOTPCREL(%rip)
	testb	%al, %al
	jne	.LBB36_21
	movb	$1, 708(%r13)
	jmp	.LBB36_21
.LBB36_28:
	movl	$8, %edi
	movl	$32, %esi
	callq	*alloc::alloc::handle_alloc_error@GOTPCREL(%rip)
.LBB36_29:
.Ltmp341:
	leaq	.Lanon.f381d664011984525626c761c6d28b35.19(%rip), %rdi
	callq	*core::cell::panic_already_borrowed@GOTPCREL(%rip)
.Ltmp342:
	jmp	.LBB36_32
.LBB36_30:
.Ltmp379:
	callq	*async_task::utils::abort@GOTPCREL(%rip)
.Ltmp380:
	jmp	.LBB36_32
.LBB36_31:
	movb	$1, %r12b
.Ltmp372:
	callq	*async_task::utils::abort@GOTPCREL(%rip)
.Ltmp373:
.LBB36_32:
	ud2
.LBB36_33:
.Ltmp346:
	movq	%rax, %r14
	movq	%rbx, %rdi
	callq	core::ptr::drop_in_place<alloc::rc::Rc<core::cell::RefCell<core::option::Option<()>>>>
	incq	(%r12)
	jmp	.LBB36_45
.LBB36_34:
.Ltmp381:
	movq	%rax, %r14
	lock		decq	(%r12)
	jne	.LBB36_36
	#MEMBARRIER
.Ltmp382:
	movq	%rsp, %rdi
	callq	alloc::sync::Arc<T,A>::drop_slow
.Ltmp383:
.LBB36_36:
.Ltmp384:
	leaq	336(%rsp), %rdi
	callq	core::ptr::drop_in_place<async_executor::LocalExecutor::spawn<(),bevy_tasks::single_threaded_task_pool::Scope<()>::spawn_on_scope<bevy_ecs::schedule::executor::multi_threaded::ExecutorState::spawn_system_task::{{closure}}>::{{closure}}>::{{closure}}>
.Ltmp385:
	jmp	.LBB36_52
.LBB36_38:
.Ltmp386:
	callq	*core::panicking::panic_in_cleanup@GOTPCREL(%rip)
.LBB36_39:
.Ltmp365:
	movq	%rax, %r14
.Ltmp366:
	leaq	104(%rsp), %rdi
	callq	core::ptr::drop_in_place<async_executor::LocalExecutor::spawn<(),bevy_tasks::single_threaded_task_pool::Scope<()>::spawn_on_scope<bevy_ecs::schedule::executor::multi_threaded::ExecutorState::spawn_system_task::{{closure}}>::{{closure}}>::{{closure}}>
.Ltmp367:
	jmp	.LBB36_52
.LBB36_41:
.Ltmp356:
	movq	%rax, %r14
.Ltmp357:
	leaq	336(%rsp), %rdi
	callq	core::ptr::drop_in_place<std::sync::poison::PoisonError<std::sync::mutex::MutexGuard<slab::Slab<core::task::wake::Waker>>>>
.Ltmp358:
	jmp	.LBB36_55
.LBB36_42:
.Ltmp359:
	callq	*core::panicking::panic_in_cleanup@GOTPCREL(%rip)
.LBB36_43:
.Ltmp362:
	movq	%rax, %r14
	movb	$1, %r15b
	jmp	.LBB36_53
.LBB36_44:
.Ltmp343:
	movq	%rax, %r14
.LBB36_45:
	movq	%rbx, %rdi
	callq	core::ptr::drop_in_place<alloc::rc::Rc<core::cell::RefCell<core::option::Option<()>>>>
.LBB36_46:
	movq	%r14, %rdi
	callq	_Unwind_Resume@PLT
.LBB36_47:
.Ltmp353:
	movq	%rax, %r14
	leaq	8(%rsp), %rdi
	callq	core::ptr::drop_in_place<bevy_tasks::single_threaded_task_pool::Scope<()>::spawn_on_scope<bevy_ecs::schedule::executor::multi_threaded::ExecutorState::spawn_system_task::{{closure}}>::{{closure}}>
	movq	%r14, %rdi
	callq	_Unwind_Resume@PLT
.LBB36_48:
.Ltmp374:
	movq	%rax, %r14
.Ltmp375:
	leaq	336(%rsp), %rdi
	callq	core::ptr::drop_in_place<async_task::task::Task<()>>
.Ltmp376:
	testb	%r12b, %r12b
	je	.LBB36_52
.Ltmp377:
	leaq	104(%rsp), %rdi
	callq	core::ptr::drop_in_place<async_task::runnable::Runnable>
.Ltmp378:
.LBB36_52:
	xorl	%r15d, %r15d
.LBB36_53:
.Ltmp387:
	movzbl	%bpl, %esi
	movq	%rbx, %rdi
	callq	core::ptr::drop_in_place<std::sync::mutex::MutexGuard<slab::Slab<core::task::wake::Waker>>>
.Ltmp388:
	testb	%r15b, %r15b
	je	.LBB36_46
.LBB36_55:
	leaq	8(%rsp), %rdi
	callq	core::ptr::drop_in_place<bevy_tasks::single_threaded_task_pool::Scope<()>::spawn_on_scope<bevy_ecs::schedule::executor::multi_threaded::ExecutorState::spawn_system_task::{{closure}}>::{{closure}}>
	movq	%r14, %rdi
	callq	_Unwind_Resume@PLT
.LBB36_56:
.Ltmp389:
	callq	*core::panicking::panic_in_cleanup@GOTPCREL(%rip)
.Lfunc_end36:
	.size	bevy_tasks::single_threaded_task_pool::Scope<T>::spawn_on_scope, .Lfunc_end36-bevy_tasks::single_threaded_task_pool::Scope<T>::spawn_on_scope
	.cfi_endproc
	.section	".gcc_except_table.bevy_tasks::single_threaded_task_pool::Scope<T>::spawn_on_scope","a",@progbits
	.p2align	2, 0x0
GCC_except_table36:
.Lexception20:
	.byte	255
	.byte	155
	.uleb128 .Lttbase20-.Lttbaseref20
.Lttbaseref20:
	.byte	1
	.uleb128 .Lcst_end20-.Lcst_begin20
.Lcst_begin20:
	.uleb128 .Ltmp344-.Lfunc_begin20
	.uleb128 .Ltmp345-.Ltmp344
	.uleb128 .Ltmp346-.Lfunc_begin20
	.byte	0
	.uleb128 .Ltmp347-.Lfunc_begin20
	.uleb128 .Ltmp352-.Ltmp347
	.uleb128 .Ltmp353-.Lfunc_begin20
	.byte	0
	.uleb128 .Ltmp360-.Lfunc_begin20
	.uleb128 .Ltmp361-.Ltmp360
	.uleb128 .Ltmp362-.Lfunc_begin20
	.byte	0
	.uleb128 .Ltmp363-.Lfunc_begin20
	.uleb128 .Ltmp364-.Ltmp363
	.uleb128 .Ltmp365-.Lfunc_begin20
	.byte	0
	.uleb128 .Ltmp364-.Lfunc_begin20
	.uleb128 .Ltmp368-.Ltmp364
	.byte	0
	.byte	0
	.uleb128 .Ltmp368-.Lfunc_begin20
	.uleb128 .Ltmp371-.Ltmp368
	.uleb128 .Ltmp374-.Lfunc_begin20
	.byte	0
	.uleb128 .Ltmp371-.Lfunc_begin20
	.uleb128 .Ltmp354-.Ltmp371
	.byte	0
	.byte	0
	.uleb128 .Ltmp354-.Lfunc_begin20
	.uleb128 .Ltmp355-.Ltmp354
	.uleb128 .Ltmp356-.Lfunc_begin20
	.byte	0
	.uleb128 .Ltmp355-.Lfunc_begin20
	.uleb128 .Ltmp341-.Ltmp355
	.byte	0
	.byte	0
	.uleb128 .Ltmp341-.Lfunc_begin20
	.uleb128 .Ltmp342-.Ltmp341
	.uleb128 .Ltmp343-.Lfunc_begin20
	.byte	0
	.uleb128 .Ltmp379-.Lfunc_begin20
	.uleb128 .Ltmp380-.Ltmp379
	.uleb128 .Ltmp381-.Lfunc_begin20
	.byte	0
	.uleb128 .Ltmp372-.Lfunc_begin20
	.uleb128 .Ltmp373-.Ltmp372
	.uleb128 .Ltmp374-.Lfunc_begin20
	.byte	0
	.uleb128 .Ltmp382-.Lfunc_begin20
	.uleb128 .Ltmp385-.Ltmp382
	.uleb128 .Ltmp386-.Lfunc_begin20
	.byte	1
	.uleb128 .Ltmp366-.Lfunc_begin20
	.uleb128 .Ltmp367-.Ltmp366
	.uleb128 .Ltmp389-.Lfunc_begin20
	.byte	1
	.uleb128 .Ltmp357-.Lfunc_begin20
	.uleb128 .Ltmp358-.Ltmp357
	.uleb128 .Ltmp359-.Lfunc_begin20
	.byte	1
	.uleb128 .Ltmp358-.Lfunc_begin20
	.uleb128 .Ltmp375-.Ltmp358
	.byte	0
	.byte	0
	.uleb128 .Ltmp375-.Lfunc_begin20
	.uleb128 .Ltmp388-.Ltmp375
	.uleb128 .Ltmp389-.Lfunc_begin20
	.byte	1
	.uleb128 .Ltmp388-.Lfunc_begin20
	.uleb128 .Lfunc_end36-.Ltmp388
	.byte	0
	.byte	0
.Lcst_end20:
	.byte	127
	.byte	0
	.p2align	2, 0x0
.Lttbase20:
	.byte	0
	.p2align	2, 0x0

	.section	.text.bevy_reflect::struct_trait::struct_debug,"ax",@progbits
	.p2align	4, 0x90
	.type	bevy_reflect::struct_trait::struct_debug,@function
bevy_reflect::struct_trait::struct_debug:
	.cfi_startproc
	pushq	%rbp
	.cfi_def_cfa_offset 16
	pushq	%r15
	.cfi_def_cfa_offset 24
	pushq	%r14
	.cfi_def_cfa_offset 32
	pushq	%r13
	.cfi_def_cfa_offset 40
	pushq	%r12
	.cfi_def_cfa_offset 48
	pushq	%rbx
	.cfi_def_cfa_offset 56
	subq	$40, %rsp
	.cfi_def_cfa_offset 96
	.cfi_offset %rbx, -56
	.cfi_offset %r12, -48
	.cfi_offset %r13, -40
	.cfi_offset %r14, -32
	.cfi_offset %r15, -24
	.cfi_offset %rbp, -16
	movq	%rdx, %r15
	movq	%rsi, %rbx
	movq	%rdi, %r14
	callq	*96(%rsi)
	testq	%rax, %rax
	je	.LBB37_1
	movq	%rax, %rdi
	callq	*bevy_reflect::type_info::TypeInfo::type_path@GOTPCREL(%rip)
	jmp	.LBB37_3
.LBB37_1:
	xorl	%eax, %eax
.LBB37_3:
	testq	%rax, %rax
	movl	$1, %ecx
	cmovneq	%rdx, %rcx
	leaq	.Lanon.f381d664011984525626c761c6d28b35.62(%rip), %rdx
	cmovneq	%rax, %rdx
	leaq	8(%rsp), %rdi
	movq	%r15, %rsi
	callq	*core::fmt::Formatter::debug_struct@GOTPCREL(%rip)
	movq	%r14, %rdi
	callq	*288(%rbx)
	testq	%rax, %rax
	je	.LBB37_8
	movq	%rax, %r15
	movq	264(%rbx), %rbp
	xorl	%r12d, %r12d
	movq	core::fmt::builders::DebugStruct::field@GOTPCREL(%rip), %r13
	.p2align	4, 0x90
.LBB37_5:
	movq	%r14, %rdi
	movq	%r12, %rsi
	callq	*%rbp
	testq	%rax, %rax
	je	.LBB37_9
	movq	%rax, 24(%rsp)
	movq	%rdx, 32(%rsp)
	movq	%r14, %rdi
	movq	%r12, %rsi
	callq	*280(%rbx)
	testq	%rax, %rax
	je	.LBB37_10
	incq	%r12
	leaq	8(%rsp), %rdi
	movq	%rax, %rsi
	leaq	24(%rsp), %rcx
	leaq	.Lanon.f381d664011984525626c761c6d28b35.66(%rip), %r8
	callq	*%r13
	cmpq	%r12, %r15
	jne	.LBB37_5
.LBB37_8:
	leaq	8(%rsp), %rdi
	callq	*core::fmt::builders::DebugStruct::finish@GOTPCREL(%rip)
	addq	$40, %rsp
	.cfi_def_cfa_offset 56
	popq	%rbx
	.cfi_def_cfa_offset 48
	popq	%r12
	.cfi_def_cfa_offset 40
	popq	%r13
	.cfi_def_cfa_offset 32
	popq	%r14
	.cfi_def_cfa_offset 24
	popq	%r15
	.cfi_def_cfa_offset 16
	popq	%rbp
	.cfi_def_cfa_offset 8
	retq
.LBB37_9:
	.cfi_def_cfa_offset 96
	leaq	.Lanon.f381d664011984525626c761c6d28b35.7(%rip), %rdi
	leaq	.Lanon.f381d664011984525626c761c6d28b35.64(%rip), %rdx
	movl	$43, %esi
	callq	*core::panicking::panic@GOTPCREL(%rip)
.LBB37_10:
	leaq	.Lanon.f381d664011984525626c761c6d28b35.7(%rip), %rdi
	leaq	.Lanon.f381d664011984525626c761c6d28b35.65(%rip), %rdx
	movl	$43, %esi
	callq	*core::panicking::panic@GOTPCREL(%rip)
.Lfunc_end37:
	.size	bevy_reflect::struct_trait::struct_debug, .Lfunc_end37-bevy_reflect::struct_trait::struct_debug
	.cfi_endproc

	.section	.rodata.cst16,"aM",@progbits,16
	.p2align	4, 0x0
.LCPI38_0:
	.zero	16,255
	.section	.text.bevy_reflect::struct_trait::DynamicStruct::insert_boxed,"ax",@progbits
	.p2align	4, 0x90
	.type	bevy_reflect::struct_trait::DynamicStruct::insert_boxed,@function
bevy_reflect::struct_trait::DynamicStruct::insert_boxed:
.Lfunc_begin21:
	.cfi_startproc
	.cfi_personality 155, DW.ref.rust_eh_personality
	.cfi_lsda 27, .Lexception21
	pushq	%rbp
	.cfi_def_cfa_offset 16
	pushq	%r15
	.cfi_def_cfa_offset 24
	pushq	%r14
	.cfi_def_cfa_offset 32
	pushq	%r13
	.cfi_def_cfa_offset 40
	pushq	%r12
	.cfi_def_cfa_offset 48
	pushq	%rbx
	.cfi_def_cfa_offset 56
	subq	$120, %rsp
	.cfi_def_cfa_offset 176
	.cfi_offset %rbx, -56
	.cfi_offset %r12, -48
	.cfi_offset %r13, -40
	.cfi_offset %r14, -32
	.cfi_offset %r15, -24
	.cfi_offset %rbp, -16
	movq	%r8, (%rsp)
	movq	%rcx, 32(%rsp)
	movq	%rdx, %rbx
	movq	%rsi, 24(%rsp)
	movq	%rdi, 8(%rsp)
	cmpq	$0, 72(%rdi)
	je	.LBB38_12
.Ltmp390:
	movq	24(%rsp), %rdi
	movq	%rbx, %rsi
	callq	hashbrown::map::make_hash
.Ltmp391:
	movq	%rax, %r13
	movq	8(%rsp), %rax
	movq	48(%rax), %rbp
	movq	56(%rax), %r15
	movq	%r13, %rax
	shrq	$57, %rax
	movd	%eax, %xmm0
	punpcklbw	%xmm0, %xmm0
	pshuflw	$0, %xmm0, %xmm0
	pshufd	$0, %xmm0, %xmm0
	movdqa	%xmm0, 80(%rsp)
	xorl	%eax, %eax
.LBB38_3:
	movq	%rax, 16(%rsp)
	andq	%r15, %r13
	movdqu	(%rbp,%r13), %xmm0
	movdqa	%xmm0, 64(%rsp)
	pcmpeqb	80(%rsp), %xmm0
	pmovmskb	%xmm0, %r12d
	testl	%r12d, %r12d
	jne	.LBB38_6
.LBB38_4:
	movdqa	64(%rsp), %xmm0
	pcmpeqb	.LCPI38_0(%rip), %xmm0
	pmovmskb	%xmm0, %eax
	testl	%eax, %eax
	jne	.LBB38_12
	movq	16(%rsp), %rax
	addq	%rax, %r13
	addq	$16, %r13
	addq	$16, %rax
	jmp	.LBB38_3
	.p2align	4, 0x90
.LBB38_8:
	leal	-1(%r12), %eax
	andl	%r12d, %eax
	movl	%eax, %r12d
	testw	%ax, %ax
	je	.LBB38_4
.LBB38_6:
	rep		bsfl	%r12d, %eax
	addq	%r13, %rax
	andq	%r15, %rax
	shlq	$5, %rax
	movq	%rbp, %r14
	subq	%rax, %r14
	cmpq	%rbx, -16(%r14)
	jne	.LBB38_8
	movq	-24(%r14), %rsi
	movq	24(%rsp), %rdi
	movq	%rbx, %rdx
	callq	*bcmp@GOTPCREL(%rip)
	testl	%eax, %eax
	jne	.LBB38_8
	movq	-8(%r14), %rbx
	movq	8(%rsp), %rax
	movq	16(%rax), %rsi
	cmpq	%rsi, %rbx
	jae	.LBB38_10
	movq	8(%rax), %r12
	shlq	$4, %rbx
	leaq	(%r12,%rbx), %r13
	movq	(%r12,%rbx), %r15
	movq	8(%r12,%rbx), %rbp
.Ltmp401:
	movq	%r15, %rdi
	callq	*(%rbp)
.Ltmp402:
	movq	8(%rbp), %rsi
	testq	%rsi, %rsi
	je	.LBB38_25
	movq	16(%rbp), %rdx
	movq	%r15, %rdi
	callq	*__rust_dealloc@GOTPCREL(%rip)
.LBB38_25:
	movq	32(%rsp), %rax
	movq	%rax, (%r13)
	movq	(%rsp), %rax
	movq	%rax, 8(%r12,%rbx)
	jmp	.LBB38_26
.LBB38_12:
	movq	8(%rsp), %r14
	movq	16(%r14), %rsi
	cmpq	(%r14), %rsi
	jne	.LBB38_15
.Ltmp404:
	movq	%r14, %rdi
	callq	alloc::raw_vec::RawVec<T,A>::reserve_for_push
.Ltmp405:
	movq	16(%r14), %rsi
.LBB38_15:
	movq	8(%r14), %rax
	movq	%rsi, %rcx
	shlq	$4, %rcx
	movq	32(%rsp), %rdx
	movq	%rdx, (%rax,%rcx)
	movq	(%rsp), %rdx
	movq	%rdx, 8(%rax,%rcx)
	leaq	1(%rsi), %rax
	movq	%rax, 16(%r14)
	testq	%rbx, %rbx
	je	.LBB38_16
	js	.LBB38_65
	movq	__rust_no_alloc_shim_is_unstable@GOTPCREL(%rip), %rax
	movzbl	(%rax), %eax
	movl	$1, %esi
	movq	%rbx, %rdi
	callq	*__rust_alloc@GOTPCREL(%rip)
	testq	%rax, %rax
	je	.LBB38_57
	movq	%rax, %r15
	movq	16(%r14), %rax
	decq	%rax
	movq	%rax, 56(%rsp)
	jmp	.LBB38_32
.LBB38_16:
	movq	%rsi, 56(%rsp)
	movl	$1, %r15d
.LBB38_32:
	movq	%r15, %rdi
	movq	24(%rsp), %rsi
	movq	%rbx, %rdx
	callq	*memcpy@GOTPCREL(%rip)
.Ltmp410:
	movq	%r15, 64(%rsp)
	movq	%r15, %rdi
	movq	%rbx, %rsi
	callq	hashbrown::map::make_hash
.Ltmp411:
	movq	%rax, %rbp
	cmpq	$0, 64(%r14)
	jne	.LBB38_35
.Ltmp412:
	leaq	48(%r14), %rdi
	callq	hashbrown::raw::inner::RawTable<T,A>::reserve_rehash
.Ltmp413:
.LBB38_35:
	movq	48(%r14), %r12
	movq	56(%r14), %r14
	movq	%rbp, %rax
	shrq	$57, %rax
	movq	%rax, 104(%rsp)
	movd	%eax, %xmm0
	punpcklbw	%xmm0, %xmm0
	pshuflw	$0, %xmm0, %xmm0
	pshufd	$0, %xmm0, %xmm0
	movdqa	%xmm0, 32(%rsp)
	xorl	%eax, %eax
	movq	%rax, (%rsp)
	xorl	%eax, %eax
	movq	%rax, 16(%rsp)
.LBB38_36:
	andq	%r14, %rbp
	movdqu	(%r12,%rbp), %xmm0
	movdqa	%xmm0, 80(%rsp)
	pcmpeqb	32(%rsp), %xmm0
	pmovmskb	%xmm0, %r15d
	testl	%r15d, %r15d
	jne	.LBB38_40
.LBB38_37:
	cmpq	$1, 16(%rsp)
	movl	$1, %ecx
	movdqa	80(%rsp), %xmm0
	je	.LBB38_38
	pmovmskb	%xmm0, %eax
	xorl	%ecx, %ecx
	testl	%eax, %eax
	setne	%cl
	rep		bsfl	%eax, %eax
	addq	%rbp, %rax
	andq	%r14, %rax
	movq	%rax, 112(%rsp)
.LBB38_38:
	pcmpeqb	.LCPI38_0(%rip), %xmm0
	pmovmskb	%xmm0, %eax
	testl	%eax, %eax
	jne	.LBB38_44
	movq	%rcx, 16(%rsp)
	movq	(%rsp), %rax
	addq	%rax, %rbp
	addq	$16, %rbp
	addq	$16, %rax
	movq	%rax, (%rsp)
	jmp	.LBB38_36
	.p2align	4, 0x90
.LBB38_42:
	leal	-1(%r15), %eax
	andl	%r15d, %eax
	movl	%eax, %r15d
	testw	%ax, %ax
	je	.LBB38_37
.LBB38_40:
	rep		bsfl	%r15d, %eax
	addq	%rbp, %rax
	andq	%r14, %rax
	shlq	$5, %rax
	movq	%r12, %r13
	subq	%rax, %r13
	cmpq	%rbx, -16(%r13)
	jne	.LBB38_42
	movq	-24(%r13), %rsi
	movq	64(%rsp), %rdi
	movq	%rbx, %rdx
	callq	*bcmp@GOTPCREL(%rip)
	testl	%eax, %eax
	jne	.LBB38_42
	movq	56(%rsp), %rax
	movq	%rax, -8(%r13)
	movl	$1, %r13d
	testq	%rbx, %rbx
	movq	8(%rsp), %r14
	je	.LBB38_48
	movabsq	$-9223372036854775808, %rax
	cmpq	%rax, %rbx
	je	.LBB38_65
	movl	$1, %edx
	movq	64(%rsp), %rdi
	movq	%rbx, %rsi
	callq	*__rust_dealloc@GOTPCREL(%rip)
.LBB38_55:
	testq	%rbx, %rbx
	js	.LBB38_65
	movq	__rust_no_alloc_shim_is_unstable@GOTPCREL(%rip), %rax
	movzbl	(%rax), %eax
	movl	$1, %esi
	movq	%rbx, %rdi
	callq	*__rust_alloc@GOTPCREL(%rip)
	movq	%rax, %r13
	testq	%rax, %rax
	je	.LBB38_57
.LBB38_48:
	movq	%r13, %rdi
	movq	24(%rsp), %rsi
	movq	%rbx, %rdx
	callq	*memcpy@GOTPCREL(%rip)
	movq	40(%r14), %rsi
	cmpq	24(%r14), %rsi
	jne	.LBB38_51
.Ltmp415:
	leaq	24(%r14), %rdi
	callq	alloc::raw_vec::RawVec<T,A>::reserve_for_push
.Ltmp416:
	movq	40(%r14), %rsi
.LBB38_51:
	movq	32(%r14), %rax
	leaq	(%rsi,%rsi,2), %rcx
	movq	%rbx, (%rax,%rcx,8)
	movq	%r13, 8(%rax,%rcx,8)
	movq	%rbx, 16(%rax,%rcx,8)
	incq	%rsi
	movq	%rsi, 40(%r14)
.LBB38_26:
	addq	$120, %rsp
	.cfi_def_cfa_offset 56
	popq	%rbx
	.cfi_def_cfa_offset 48
	popq	%r12
	.cfi_def_cfa_offset 40
	popq	%r13
	.cfi_def_cfa_offset 32
	popq	%r14
	.cfi_def_cfa_offset 24
	popq	%r15
	.cfi_def_cfa_offset 16
	popq	%rbp
	.cfi_def_cfa_offset 8
	retq
.LBB38_44:
	.cfi_def_cfa_offset 176
	movq	112(%rsp), %rdx
	movzbl	(%r12,%rdx), %eax
	testb	%al, %al
	js	.LBB38_46
	movdqa	(%r12), %xmm0
	pmovmskb	%xmm0, %eax
	rep		bsfl	%eax, %edx
	movzbl	(%r12,%rdx), %eax
.LBB38_46:
	andb	$1, %al
	movzbl	%al, %eax
	movq	8(%rsp), %rcx
	subq	%rax, 64(%rcx)
	leaq	-16(%rdx), %rax
	andq	%r14, %rax
	movq	%rcx, %r14
	movq	104(%rsp), %rcx
	movb	%cl, (%r12,%rdx)
	movb	%cl, 16(%rax,%r12)
	incq	72(%r14)
	shlq	$5, %rdx
	movq	%r12, %rax
	subq	%rdx, %rax
	negq	%rdx
	movq	%rbx, -32(%r12,%rdx)
	movq	64(%rsp), %rcx
	movq	%rcx, -24(%rax)
	movq	%rbx, -16(%rax)
	movq	56(%rsp), %rcx
	movq	%rcx, -8(%rax)
	testq	%rbx, %rbx
	jne	.LBB38_55
	movl	$1, %r13d
	jmp	.LBB38_48
.LBB38_10:
.Ltmp395:
	leaq	.Lanon.f381d664011984525626c761c6d28b35.67(%rip), %rdx
	movq	%rbx, %rdi
	callq	*core::panicking::panic_bounds_check@GOTPCREL(%rip)
.Ltmp396:
	ud2
.LBB38_65:
	callq	*alloc::raw_vec::capacity_overflow@GOTPCREL(%rip)
.LBB38_57:
	movl	$1, %edi
	movq	%rbx, %rsi
	callq	*alloc::alloc::handle_alloc_error@GOTPCREL(%rip)
.LBB38_60:
.Ltmp417:
	movq	%rax, %r14
	testq	%rbx, %rbx
	je	.LBB38_63
	movl	$1, %edx
	movq	%r13, %rdi
	jmp	.LBB38_62
.LBB38_17:
.Ltmp406:
	movq	%rax, %r14
.Ltmp407:
	movq	32(%rsp), %rdi
	movq	(%rsp), %rsi
	callq	core::ptr::drop_in_place<alloc::boxed::Box<dyn bevy_reflect::reflect::Reflect>>
.Ltmp408:
	jmp	.LBB38_63
.LBB38_18:
.Ltmp409:
	callq	*core::panicking::panic_in_cleanup@GOTPCREL(%rip)
.LBB38_19:
.Ltmp403:
	movq	%rax, %r14
	movq	8(%rbp), %rsi
	testq	%rsi, %rsi
	je	.LBB38_21
	movq	16(%rbp), %rdx
	movq	%r15, %rdi
	callq	*__rust_dealloc@GOTPCREL(%rip)
.LBB38_21:
	movq	32(%rsp), %rax
	movq	%rax, (%r13)
	movq	(%rsp), %rax
	movq	%rax, 8(%r12,%rbx)
	movq	%r14, %rdi
	callq	_Unwind_Resume@PLT
.LBB38_58:
.Ltmp414:
	movq	%rax, %r14
	testq	%rbx, %rbx
	je	.LBB38_63
	movl	$1, %edx
	movq	64(%rsp), %rdi
.LBB38_62:
	movq	%rbx, %rsi
	callq	*__rust_dealloc@GOTPCREL(%rip)
	movq	%r14, %rdi
	callq	_Unwind_Resume@PLT
.LBB38_64:
.Ltmp392:
	movq	%rax, %r14
.Ltmp393:
	movq	32(%rsp), %rdi
	movq	(%rsp), %rsi
	callq	core::ptr::drop_in_place<alloc::boxed::Box<dyn bevy_reflect::reflect::Reflect>>
.Ltmp394:
	jmp	.LBB38_63
.LBB38_27:
.Ltmp397:
	movq	%rax, %r14
.Ltmp398:
	movq	32(%rsp), %rdi
	movq	(%rsp), %rsi
	callq	core::ptr::drop_in_place<alloc::boxed::Box<dyn bevy_reflect::reflect::Reflect>>
.Ltmp399:
.LBB38_63:
	movq	%r14, %rdi
	callq	_Unwind_Resume@PLT
.LBB38_28:
.Ltmp400:
	callq	*core::panicking::panic_in_cleanup@GOTPCREL(%rip)
.Lfunc_end38:
	.size	bevy_reflect::struct_trait::DynamicStruct::insert_boxed, .Lfunc_end38-bevy_reflect::struct_trait::DynamicStruct::insert_boxed
	.cfi_endproc
	.section	.gcc_except_table.bevy_reflect::struct_trait::DynamicStruct::insert_boxed,"a",@progbits
	.p2align	2, 0x0
GCC_except_table38:
.Lexception21:
	.byte	255
	.byte	155
	.uleb128 .Lttbase21-.Lttbaseref21
.Lttbaseref21:
	.byte	1
	.uleb128 .Lcst_end21-.Lcst_begin21
.Lcst_begin21:
	.uleb128 .Ltmp390-.Lfunc_begin21
	.uleb128 .Ltmp391-.Ltmp390
	.uleb128 .Ltmp392-.Lfunc_begin21
	.byte	0
	.uleb128 .Ltmp401-.Lfunc_begin21
	.uleb128 .Ltmp402-.Ltmp401
	.uleb128 .Ltmp403-.Lfunc_begin21
	.byte	0
	.uleb128 .Ltmp404-.Lfunc_begin21
	.uleb128 .Ltmp405-.Ltmp404
	.uleb128 .Ltmp406-.Lfunc_begin21
	.byte	0
	.uleb128 .Ltmp405-.Lfunc_begin21
	.uleb128 .Ltmp410-.Ltmp405
	.byte	0
	.byte	0
	.uleb128 .Ltmp410-.Lfunc_begin21
	.uleb128 .Ltmp413-.Ltmp410
	.uleb128 .Ltmp414-.Lfunc_begin21
	.byte	0
	.uleb128 .Ltmp413-.Lfunc_begin21
	.uleb128 .Ltmp415-.Ltmp413
	.byte	0
	.byte	0
	.uleb128 .Ltmp415-.Lfunc_begin21
	.uleb128 .Ltmp416-.Ltmp415
	.uleb128 .Ltmp417-.Lfunc_begin21
	.byte	0
	.uleb128 .Ltmp395-.Lfunc_begin21
	.uleb128 .Ltmp396-.Ltmp395
	.uleb128 .Ltmp397-.Lfunc_begin21
	.byte	0
	.uleb128 .Ltmp396-.Lfunc_begin21
	.uleb128 .Ltmp407-.Ltmp396
	.byte	0
	.byte	0
	.uleb128 .Ltmp407-.Lfunc_begin21
	.uleb128 .Ltmp408-.Ltmp407
	.uleb128 .Ltmp409-.Lfunc_begin21
	.byte	1
	.uleb128 .Ltmp408-.Lfunc_begin21
	.uleb128 .Ltmp393-.Ltmp408
	.byte	0
	.byte	0
	.uleb128 .Ltmp393-.Lfunc_begin21
	.uleb128 .Ltmp399-.Ltmp393
	.uleb128 .Ltmp400-.Lfunc_begin21
	.byte	1
	.uleb128 .Ltmp399-.Lfunc_begin21
	.uleb128 .Lfunc_end38-.Ltmp399
	.byte	0
	.byte	0
.Lcst_end21:
	.byte	127
	.byte	0
	.p2align	2, 0x0
.Lttbase21:
	.byte	0
	.p2align	2, 0x0

	.section	.rodata.cst16,"aM",@progbits,16
	.p2align	4, 0x0
.LCPI39_0:
	.zero	16,64
.LCPI39_1:
	.byte	189
	.byte	249
	.byte	195
	.byte	198
	.byte	144
	.byte	213
	.byte	130
	.byte	129
	.byte	206
	.byte	182
	.byte	217
	.byte	68
	.byte	101
	.byte	85
	.byte	120
	.byte	210
	.section	.text.bevy_reflect::type_registry::TypeRegistry::register,"ax",@progbits
	.p2align	4, 0x90
	.type	bevy_reflect::type_registry::TypeRegistry::register,@function
bevy_reflect::type_registry::TypeRegistry::register:
.Lfunc_begin22:
	.cfi_startproc
	.cfi_personality 155, DW.ref.rust_eh_personality
	.cfi_lsda 27, .Lexception22
	pushq	%r14
	.cfi_def_cfa_offset 16
	pushq	%rbx
	.cfi_def_cfa_offset 24
	subq	$120, %rsp
	.cfi_def_cfa_offset 144
	.cfi_offset %rbx, -24
	.cfi_offset %r14, -16
	movq	%rdi, %rbx
	movabsq	$-9114487878057723459, %rax
	movq	(%rdi), %rcx
	movq	8(%rdi), %rdx
	leaq	-56(%rcx), %rsi
	xorl	%edi, %edi
	movdqa	.LCPI39_0(%rip), %xmm0
	pcmpeqd	%xmm1, %xmm1
	movdqa	.LCPI39_1(%rip), %xmm2
	movq	%rax, %r8
.LBB39_1:
	andq	%rdx, %r8
	movdqu	(%rcx,%r8), %xmm3
	movdqa	%xmm3, %xmm4
	pcmpeqb	%xmm0, %xmm4
	pmovmskb	%xmm4, %r9d
	.p2align	4, 0x90
.LBB39_2:
	testw	%r9w, %r9w
	je	.LBB39_3
	leal	-1(%r9), %r10d
	andl	%r9d, %r10d
	rep		bsfl	%r9d, %r9d
	addq	%r8, %r9
	andq	%rdx, %r9
	negq	%r9
	imulq	$56, %r9, %r9
	movdqu	(%rsi,%r9), %xmm4
	pcmpeqb	%xmm2, %xmm4
	pmovmskb	%xmm4, %r11d
	movl	%r10d, %r9d
	cmpl	$65535, %r11d
	jne	.LBB39_2
	jmp	.LBB39_11
	.p2align	4, 0x90
.LBB39_3:
	pcmpeqb	%xmm1, %xmm3
	pmovmskb	%xmm3, %r9d
	testl	%r9d, %r9d
	jne	.LBB39_9
	addq	%rdi, %r8
	addq	$16, %r8
	addq	$16, %rdi
	jmp	.LBB39_1
.LBB39_9:
	movq	%rbx, 8(%rsp)
	movq	%rax, 16(%rsp)
	movq	%rax, 24(%rsp)
	movabsq	$-3280778435104229682, %rax
	movq	%rax, 32(%rsp)
	leaq	40(%rsp), %r14
	movq	%r14, %rdi
	callq	*bevy_ecs::component::_::<impl bevy_reflect::type_registry::GetTypeRegistration for bevy_ecs::component::Tick>::get_type_registration@GOTPCREL(%rip)
	leaq	32(%rbx), %rsi
	leaq	64(%rbx), %rdx
	leaq	96(%rbx), %rcx
.Ltmp418:
	movq	%r14, %rdi
	callq	*bevy_reflect::type_registry::TypeRegistry::update_registration_indices@GOTPCREL(%rip)
.Ltmp419:
	movq	72(%rsp), %rax
	movq	%rax, 112(%rsp)
	movdqu	40(%rsp), %xmm0
	movdqu	56(%rsp), %xmm1
	movdqa	%xmm1, 96(%rsp)
	movdqa	%xmm0, 80(%rsp)
	leaq	8(%rsp), %rdi
	leaq	80(%rsp), %rsi
	callq	hashbrown::map::VacantEntry<K,V,S,A>::insert
	movq	%rbx, %rdi
	callq	*bevy_ecs::component::_::<impl bevy_reflect::type_registry::GetTypeRegistration for bevy_ecs::component::Tick>::register_type_dependencies@GOTPCREL(%rip)
.LBB39_11:
	addq	$120, %rsp
	.cfi_def_cfa_offset 24
	popq	%rbx
	.cfi_def_cfa_offset 16
	popq	%r14
	.cfi_def_cfa_offset 8
	retq
.LBB39_6:
	.cfi_def_cfa_offset 144
.Ltmp420:
	movq	%rax, %rbx
.Ltmp421:
	leaq	40(%rsp), %rdi
	callq	core::ptr::drop_in_place<hashbrown::map::HashMap<core::any::TypeId,alloc::boxed::Box<dyn bevy_reflect::type_registry::TypeData>,bevy_utils::NoOpHash>>
.Ltmp422:
	movq	%rbx, %rdi
	callq	_Unwind_Resume@PLT
.LBB39_5:
.Ltmp423:
	callq	*core::panicking::panic_in_cleanup@GOTPCREL(%rip)
.Lfunc_end39:
	.size	bevy_reflect::type_registry::TypeRegistry::register, .Lfunc_end39-bevy_reflect::type_registry::TypeRegistry::register
	.cfi_endproc
	.section	.gcc_except_table.bevy_reflect::type_registry::TypeRegistry::register,"a",@progbits
	.p2align	2, 0x0
GCC_except_table39:
.Lexception22:
	.byte	255
	.byte	155
	.uleb128 .Lttbase22-.Lttbaseref22
.Lttbaseref22:
	.byte	1
	.uleb128 .Lcst_end22-.Lcst_begin22
.Lcst_begin22:
	.uleb128 .Lfunc_begin22-.Lfunc_begin22
	.uleb128 .Ltmp418-.Lfunc_begin22
	.byte	0
	.byte	0
	.uleb128 .Ltmp418-.Lfunc_begin22
	.uleb128 .Ltmp419-.Ltmp418
	.uleb128 .Ltmp420-.Lfunc_begin22
	.byte	0
	.uleb128 .Ltmp419-.Lfunc_begin22
	.uleb128 .Ltmp421-.Ltmp419
	.byte	0
	.byte	0
	.uleb128 .Ltmp421-.Lfunc_begin22
	.uleb128 .Ltmp422-.Ltmp421
	.uleb128 .Ltmp423-.Lfunc_begin22
	.byte	1
	.uleb128 .Ltmp422-.Lfunc_begin22
	.uleb128 .Lfunc_end39-.Ltmp422
	.byte	0
	.byte	0
.Lcst_end22:
	.byte	127
	.byte	0
	.p2align	2, 0x0
.Lttbase22:
	.byte	0
	.p2align	2, 0x0

	.section	.text.bevy_reflect::type_registry::TypeRegistration::insert,"ax",@progbits
	.p2align	4, 0x90
	.type	bevy_reflect::type_registry::TypeRegistration::insert,@function
bevy_reflect::type_registry::TypeRegistration::insert:
.Lfunc_begin23:
	.cfi_startproc
	.cfi_personality 155, DW.ref.rust_eh_personality
	.cfi_lsda 27, .Lexception23
	pushq	%r15
	.cfi_def_cfa_offset 16
	pushq	%r14
	.cfi_def_cfa_offset 24
	pushq	%rbx
	.cfi_def_cfa_offset 32
	.cfi_offset %rbx, -32
	.cfi_offset %r14, -24
	.cfi_offset %r15, -16
	movq	%rsi, %r14
	movq	%rdi, %rbx
	movq	__rust_no_alloc_shim_is_unstable@GOTPCREL(%rip), %rax
	movzbl	(%rax), %eax
	movl	$32, %edi
	movl	$8, %esi
	callq	*__rust_alloc@GOTPCREL(%rip)
	testq	%rax, %rax
	je	.LBB40_9
	movups	(%r14), %xmm0
	movups	16(%r14), %xmm1
	movups	%xmm1, 16(%rax)
	movups	%xmm0, (%rax)
	leaq	.Lanon.f381d664011984525626c761c6d28b35.75(%rip), %r8
	movabsq	$-6862597384769493118, %rsi
	movabsq	$-6242284697208490501, %rdx
	movq	%rbx, %rdi
	movq	%rax, %rcx
	callq	hashbrown::map::HashMap<K,V,S,A>::insert
	testq	%rax, %rax
	je	.LBB40_8
.Ltmp424:
	movq	%rax, %rbx
	movq	%rdx, %r14
	movq	%rax, %rdi
	callq	*(%rdx)
.Ltmp425:
	movq	8(%r14), %rsi
	testq	%rsi, %rsi
	je	.LBB40_8
	movq	16(%r14), %rdx
	movq	%rbx, %rdi
	popq	%rbx
	.cfi_def_cfa_offset 24
	popq	%r14
	.cfi_def_cfa_offset 16
	popq	%r15
	.cfi_def_cfa_offset 8
	jmpq	*__rust_dealloc@GOTPCREL(%rip)
.LBB40_8:
	.cfi_def_cfa_offset 32
	popq	%rbx
	.cfi_def_cfa_offset 24
	popq	%r14
	.cfi_def_cfa_offset 16
	popq	%r15
	.cfi_def_cfa_offset 8
	retq
.LBB40_9:
	.cfi_def_cfa_offset 32
	movl	$8, %edi
	movl	$32, %esi
	callq	*alloc::alloc::handle_alloc_error@GOTPCREL(%rip)
.LBB40_5:
.Ltmp426:
	movq	%rax, %r15
	movq	8(%r14), %rsi
	testq	%rsi, %rsi
	je	.LBB40_7
	movq	16(%r14), %rdx
	movq	%rbx, %rdi
	callq	*__rust_dealloc@GOTPCREL(%rip)
.LBB40_7:
	movq	%r15, %rdi
	callq	_Unwind_Resume@PLT
.Lfunc_end40:
	.size	bevy_reflect::type_registry::TypeRegistration::insert, .Lfunc_end40-bevy_reflect::type_registry::TypeRegistration::insert
	.cfi_endproc
	.section	.gcc_except_table.bevy_reflect::type_registry::TypeRegistration::insert,"a",@progbits
	.p2align	2, 0x0
GCC_except_table40:
.Lexception23:
	.byte	255
	.byte	255
	.byte	1
	.uleb128 .Lcst_end23-.Lcst_begin23
.Lcst_begin23:
	.uleb128 .Lfunc_begin23-.Lfunc_begin23
	.uleb128 .Ltmp424-.Lfunc_begin23
	.byte	0
	.byte	0
	.uleb128 .Ltmp424-.Lfunc_begin23
	.uleb128 .Ltmp425-.Ltmp424
	.uleb128 .Ltmp426-.Lfunc_begin23
	.byte	0
	.uleb128 .Ltmp425-.Lfunc_begin23
	.uleb128 .Lfunc_end40-.Ltmp425
	.byte	0
	.byte	0
.Lcst_end23:
	.p2align	2, 0x0

	.section	.text.bevy_reflect::type_registry::TypeRegistration::insert,"ax",@progbits
	.p2align	4, 0x90
	.type	bevy_reflect::type_registry::TypeRegistration::insert,@function
bevy_reflect::type_registry::TypeRegistration::insert:
.Lfunc_begin24:
	.cfi_startproc
	.cfi_personality 155, DW.ref.rust_eh_personality
	.cfi_lsda 27, .Lexception24
	pushq	%r15
	.cfi_def_cfa_offset 16
	pushq	%r14
	.cfi_def_cfa_offset 24
	pushq	%rbx
	.cfi_def_cfa_offset 32
	.cfi_offset %rbx, -32
	.cfi_offset %r14, -24
	.cfi_offset %r15, -16
	movq	%rsi, %r14
	movq	%rdi, %rbx
	movq	__rust_no_alloc_shim_is_unstable@GOTPCREL(%rip), %rax
	movzbl	(%rax), %eax
	movl	$8, %edi
	movl	$8, %esi
	callq	*__rust_alloc@GOTPCREL(%rip)
	testq	%rax, %rax
	je	.LBB41_9
	movq	%r14, (%rax)
	leaq	.Lanon.f381d664011984525626c761c6d28b35.81(%rip), %r8
	movabsq	$-906751569395743941, %rsi
	movabsq	$-1259648926463959195, %rdx
	movq	%rbx, %rdi
	movq	%rax, %rcx
	callq	hashbrown::map::HashMap<K,V,S,A>::insert
	testq	%rax, %rax
	je	.LBB41_8
.Ltmp427:
	movq	%rax, %rbx
	movq	%rdx, %r14
	movq	%rax, %rdi
	callq	*(%rdx)
.Ltmp428:
	movq	8(%r14), %rsi
	testq	%rsi, %rsi
	je	.LBB41_8
	movq	16(%r14), %rdx
	movq	%rbx, %rdi
	popq	%rbx
	.cfi_def_cfa_offset 24
	popq	%r14
	.cfi_def_cfa_offset 16
	popq	%r15
	.cfi_def_cfa_offset 8
	jmpq	*__rust_dealloc@GOTPCREL(%rip)
.LBB41_8:
	.cfi_def_cfa_offset 32
	popq	%rbx
	.cfi_def_cfa_offset 24
	popq	%r14
	.cfi_def_cfa_offset 16
	popq	%r15
	.cfi_def_cfa_offset 8
	retq
.LBB41_9:
	.cfi_def_cfa_offset 32
	movl	$8, %edi
	movl	$8, %esi
	callq	*alloc::alloc::handle_alloc_error@GOTPCREL(%rip)
.LBB41_5:
.Ltmp429:
	movq	%rax, %r15
	movq	8(%r14), %rsi
	testq	%rsi, %rsi
	je	.LBB41_7
	movq	16(%r14), %rdx
	movq	%rbx, %rdi
	callq	*__rust_dealloc@GOTPCREL(%rip)
.LBB41_7:
	movq	%r15, %rdi
	callq	_Unwind_Resume@PLT
.Lfunc_end41:
	.size	bevy_reflect::type_registry::TypeRegistration::insert, .Lfunc_end41-bevy_reflect::type_registry::TypeRegistration::insert
	.cfi_endproc
	.section	.gcc_except_table.bevy_reflect::type_registry::TypeRegistration::insert,"a",@progbits
	.p2align	2, 0x0
GCC_except_table41:
.Lexception24:
	.byte	255
	.byte	255
	.byte	1
	.uleb128 .Lcst_end24-.Lcst_begin24
.Lcst_begin24:
	.uleb128 .Lfunc_begin24-.Lfunc_begin24
	.uleb128 .Ltmp427-.Lfunc_begin24
	.byte	0
	.byte	0
	.uleb128 .Ltmp427-.Lfunc_begin24
	.uleb128 .Ltmp428-.Ltmp427
	.uleb128 .Ltmp429-.Lfunc_begin24
	.byte	0
	.uleb128 .Ltmp428-.Lfunc_begin24
	.uleb128 .Lfunc_end41-.Ltmp428
	.byte	0
	.byte	0
.Lcst_end24:
	.p2align	2, 0x0

	.section	".text.bevy_reflect::impls::std::_::<impl bevy_reflect::reflect::Reflect for u32>::as_any_mut","ax",@progbits
	.p2align	4, 0x90
	.type	bevy_reflect::impls::std::_::<impl bevy_reflect::reflect::Reflect for u32>::as_any_mut,@function
bevy_reflect::impls::std::_::<impl bevy_reflect::reflect::Reflect for u32>::as_any_mut:
	.cfi_startproc
	movq	%rdi, %rax
	leaq	.Lanon.f381d664011984525626c761c6d28b35.82(%rip), %rdx
	retq
.Lfunc_end42:
	.size	bevy_reflect::impls::std::_::<impl bevy_reflect::reflect::Reflect for u32>::as_any_mut, .Lfunc_end42-bevy_reflect::impls::std::_::<impl bevy_reflect::reflect::Reflect for u32>::as_any_mut
	.cfi_endproc

	.section	".text.bevy_reflect::impls::std::_::<impl bevy_reflect::reflect::Reflect for u32>::as_reflect","ax",@progbits
	.p2align	4, 0x90
	.type	bevy_reflect::impls::std::_::<impl bevy_reflect::reflect::Reflect for u32>::as_reflect,@function
bevy_reflect::impls::std::_::<impl bevy_reflect::reflect::Reflect for u32>::as_reflect:
	.cfi_startproc
	movq	%rdi, %rax
	leaq	.Lanon.f381d664011984525626c761c6d28b35.84(%rip), %rdx
	retq
.Lfunc_end43:
	.size	bevy_reflect::impls::std::_::<impl bevy_reflect::reflect::Reflect for u32>::as_reflect, .Lfunc_end43-bevy_reflect::impls::std::_::<impl bevy_reflect::reflect::Reflect for u32>::as_reflect
	.cfi_endproc

	.section	".text.bevy_reflect::impls::std::_::<impl bevy_reflect::reflect::Reflect for u32>::clone_value","ax",@progbits
	.p2align	4, 0x90
	.type	bevy_reflect::impls::std::_::<impl bevy_reflect::reflect::Reflect for u32>::clone_value,@function
bevy_reflect::impls::std::_::<impl bevy_reflect::reflect::Reflect for u32>::clone_value:
	.cfi_startproc
	pushq	%rbx
	.cfi_def_cfa_offset 16
	.cfi_offset %rbx, -16
	movl	(%rdi), %ebx
	movq	__rust_no_alloc_shim_is_unstable@GOTPCREL(%rip), %rax
	movzbl	(%rax), %eax
	movl	$4, %edi
	movl	$4, %esi
	callq	*__rust_alloc@GOTPCREL(%rip)
	testq	%rax, %rax
	je	.LBB44_2
	movl	%ebx, (%rax)
	leaq	.Lanon.f381d664011984525626c761c6d28b35.84(%rip), %rdx
	popq	%rbx
	.cfi_def_cfa_offset 8
	retq
.LBB44_2:
	.cfi_def_cfa_offset 16
	movl	$4, %edi
	movl	$4, %esi
	callq	*alloc::alloc::handle_alloc_error@GOTPCREL(%rip)
.Lfunc_end44:
	.size	bevy_reflect::impls::std::_::<impl bevy_reflect::reflect::Reflect for u32>::clone_value, .Lfunc_end44-bevy_reflect::impls::std::_::<impl bevy_reflect::reflect::Reflect for u32>::clone_value
	.cfi_endproc

	.section	".text.bevy_reflect::impls::std::_::<impl bevy_reflect::reflect::Reflect for u32>::reflect_mut","ax",@progbits
	.p2align	4, 0x90
	.type	bevy_reflect::impls::std::_::<impl bevy_reflect::reflect::Reflect for u32>::reflect_mut,@function
bevy_reflect::impls::std::_::<impl bevy_reflect::reflect::Reflect for u32>::reflect_mut:
	.cfi_startproc
	movq	%rdi, %rax
	movq	%rsi, 8(%rdi)
	leaq	.Lanon.f381d664011984525626c761c6d28b35.84(%rip), %rcx
	movq	%rcx, 16(%rdi)
	movq	$7, (%rdi)
	retq
.Lfunc_end45:
	.size	bevy_reflect::impls::std::_::<impl bevy_reflect::reflect::Reflect for u32>::reflect_mut, .Lfunc_end45-bevy_reflect::impls::std::_::<impl bevy_reflect::reflect::Reflect for u32>::reflect_mut
	.cfi_endproc

	.section	".text.bevy_reflect::impls::std::_::<impl bevy_reflect::reflect::Reflect for u32>::reflect_ref","ax",@progbits
	.p2align	4, 0x90
	.type	bevy_reflect::impls::std::_::<impl bevy_reflect::reflect::Reflect for u32>::reflect_ref,@function
bevy_reflect::impls::std::_::<impl bevy_reflect::reflect::Reflect for u32>::reflect_ref:
	.cfi_startproc
	movq	%rdi, %rax
	movq	%rsi, 8(%rdi)
	leaq	.Lanon.f381d664011984525626c761c6d28b35.84(%rip), %rcx
	movq	%rcx, 16(%rdi)
	movq	$7, (%rdi)
	retq
.Lfunc_end46:
	.size	bevy_reflect::impls::std::_::<impl bevy_reflect::reflect::Reflect for u32>::reflect_ref, .Lfunc_end46-bevy_reflect::impls::std::_::<impl bevy_reflect::reflect::Reflect for u32>::reflect_ref
	.cfi_endproc

	.section	".text.bevy_reflect::impls::std::_::<impl bevy_reflect::reflect::Reflect for u32>::into_reflect","ax",@progbits
	.p2align	4, 0x90
	.type	bevy_reflect::impls::std::_::<impl bevy_reflect::reflect::Reflect for u32>::into_reflect,@function
bevy_reflect::impls::std::_::<impl bevy_reflect::reflect::Reflect for u32>::into_reflect:
	.cfi_startproc
	movq	%rdi, %rax
	leaq	.Lanon.f381d664011984525626c761c6d28b35.84(%rip), %rdx
	retq
.Lfunc_end47:
	.size	bevy_reflect::impls::std::_::<impl bevy_reflect::reflect::Reflect for u32>::into_reflect, .Lfunc_end47-bevy_reflect::impls::std::_::<impl bevy_reflect::reflect::Reflect for u32>::into_reflect
	.cfi_endproc

	.section	".text.bevy_reflect::impls::std::_::<impl bevy_reflect::reflect::Reflect for u32>::reflect_kind","ax",@progbits
	.p2align	4, 0x90
	.type	bevy_reflect::impls::std::_::<impl bevy_reflect::reflect::Reflect for u32>::reflect_kind,@function
bevy_reflect::impls::std::_::<impl bevy_reflect::reflect::Reflect for u32>::reflect_kind:
	.cfi_startproc
	movb	$7, %al
	retq
.Lfunc_end48:
	.size	bevy_reflect::impls::std::_::<impl bevy_reflect::reflect::Reflect for u32>::reflect_kind, .Lfunc_end48-bevy_reflect::impls::std::_::<impl bevy_reflect::reflect::Reflect for u32>::reflect_kind
	.cfi_endproc

	.section	".text.bevy_reflect::impls::std::_::<impl bevy_reflect::reflect::Reflect for u32>::reflect_owned","ax",@progbits
	.p2align	4, 0x90
	.type	bevy_reflect::impls::std::_::<impl bevy_reflect::reflect::Reflect for u32>::reflect_owned,@function
bevy_reflect::impls::std::_::<impl bevy_reflect::reflect::Reflect for u32>::reflect_owned:
	.cfi_startproc
	movq	%rdi, %rax
	movq	%rsi, 8(%rdi)
	leaq	.Lanon.f381d664011984525626c761c6d28b35.84(%rip), %rcx
	movq	%rcx, 16(%rdi)
	movq	$7, (%rdi)
	retq
.Lfunc_end49:
	.size	bevy_reflect::impls::std::_::<impl bevy_reflect::reflect::Reflect for u32>::reflect_owned, .Lfunc_end49-bevy_reflect::impls::std::_::<impl bevy_reflect::reflect::Reflect for u32>::reflect_owned
	.cfi_endproc

	.section	".text.bevy_reflect::impls::std::_::<impl bevy_reflect::reflect::Reflect for u32>::as_reflect_mut","ax",@progbits
	.p2align	4, 0x90
	.type	bevy_reflect::impls::std::_::<impl bevy_reflect::reflect::Reflect for u32>::as_reflect_mut,@function
bevy_reflect::impls::std::_::<impl bevy_reflect::reflect::Reflect for u32>::as_reflect_mut:
	.cfi_startproc
	movq	%rdi, %rax
	leaq	.Lanon.f381d664011984525626c761c6d28b35.84(%rip), %rdx
	retq
.Lfunc_end50:
	.size	bevy_reflect::impls::std::_::<impl bevy_reflect::reflect::Reflect for u32>::as_reflect_mut, .Lfunc_end50-bevy_reflect::impls::std::_::<impl bevy_reflect::reflect::Reflect for u32>::as_reflect_mut
	.cfi_endproc

	.section	".text.bevy_reflect::impls::std::_::<impl bevy_reflect::reflect::Reflect for u32>::get_represented_type_info","ax",@progbits
	.p2align	4, 0x90
	.type	bevy_reflect::impls::std::_::<impl bevy_reflect::reflect::Reflect for u32>::get_represented_type_info,@function
bevy_reflect::impls::std::_::<impl bevy_reflect::reflect::Reflect for u32>::get_represented_type_info:
	.cfi_startproc
	jmpq	*bevy_reflect::impls::std::_::<impl bevy_reflect::type_info::Typed for u32>::type_info@GOTPCREL(%rip)
.Lfunc_end51:
	.size	bevy_reflect::impls::std::_::<impl bevy_reflect::reflect::Reflect for u32>::get_represented_type_info, .Lfunc_end51-bevy_reflect::impls::std::_::<impl bevy_reflect::reflect::Reflect for u32>::get_represented_type_info
	.cfi_endproc

	.section	".text.bevy_reflect::impls::std::_::<impl bevy_reflect::reflect::Reflect for u32>::set","ax",@progbits
	.p2align	4, 0x90
	.type	bevy_reflect::impls::std::_::<impl bevy_reflect::reflect::Reflect for u32>::set,@function
bevy_reflect::impls::std::_::<impl bevy_reflect::reflect::Reflect for u32>::set:
.Lfunc_begin25:
	.cfi_startproc
	.cfi_personality 155, DW.ref.rust_eh_personality
	.cfi_lsda 27, .Lexception25
	pushq	%r15
	.cfi_def_cfa_offset 16
	pushq	%r14
	.cfi_def_cfa_offset 24
	pushq	%r13
	.cfi_def_cfa_offset 32
	pushq	%r12
	.cfi_def_cfa_offset 40
	pushq	%rbx
	.cfi_def_cfa_offset 48
	subq	$16, %rsp
	.cfi_def_cfa_offset 64
	.cfi_offset %rbx, -48
	.cfi_offset %r12, -40
	.cfi_offset %r13, -32
	.cfi_offset %r14, -24
	.cfi_offset %r15, -16
	movq	%rdx, %r14
	movq	%rsi, %r15
	movq	%rdi, %rbx
.Ltmp430:
	movq	%rsi, %rdi
	callq	*64(%rdx)
.Ltmp431:
	movabsq	$1403077013027291752, %r12
	movabsq	$4518903163082958039, %r13
	xorq	%r13, %rax
	xorq	%r12, %rdx
	orq	%rax, %rdx
	jne	.LBB52_7
	movq	%r15, %rdi
	callq	*104(%r14)
	movq	%rax, %r15
	movq	%rdx, %r14
.Ltmp436:
	movq	%rax, %rdi
	callq	*24(%rdx)
.Ltmp437:
	xorq	%r13, %rax
	xorq	%r12, %rdx
	orq	%rax, %rdx
	je	.LBB52_6
	testq	%r15, %r15
	jne	.LBB52_23
	movq	%r14, %r15
.LBB52_6:
	movl	(%r15), %r14d
	movl	$4, %esi
	movl	$4, %edx
	movq	%r15, %rdi
	callq	*__rust_dealloc@GOTPCREL(%rip)
	movl	%r14d, (%rbx)
	xorl	%r15d, %r15d
.LBB52_7:
	movq	%r15, %rax
	movq	%r14, %rdx
	addq	$16, %rsp
	.cfi_def_cfa_offset 48
	popq	%rbx
	.cfi_def_cfa_offset 40
	popq	%r12
	.cfi_def_cfa_offset 32
	popq	%r13
	.cfi_def_cfa_offset 24
	popq	%r14
	.cfi_def_cfa_offset 16
	popq	%r15
	.cfi_def_cfa_offset 8
	retq
.LBB52_23:
	.cfi_def_cfa_offset 64
	movq	%r15, (%rsp)
	movq	%r14, 8(%rsp)
.Ltmp442:
	leaq	.Lanon.f381d664011984525626c761c6d28b35.158(%rip), %rdi
	leaq	.Lanon.f381d664011984525626c761c6d28b35.159(%rip), %rcx
	leaq	.Lanon.f381d664011984525626c761c6d28b35.137(%rip), %r8
	movq	%rsp, %rdx
	movl	$43, %esi
	callq	*core::result::unwrap_failed@GOTPCREL(%rip)
.Ltmp443:
	ud2
.LBB52_20:
.Ltmp444:
	movq	%rax, %rbx
	movq	(%rsp), %r14
	movq	8(%rsp), %r15
.Ltmp445:
	movq	%r14, %rdi
	callq	*(%r15)
.Ltmp446:
	movq	8(%r15), %rsi
	testq	%rsi, %rsi
	je	.LBB52_17
	movq	16(%r15), %rdx
	movq	%r14, %rdi
	jmp	.LBB52_16
.LBB52_18:
.Ltmp447:
	movq	8(%r15), %rsi
	testq	%rsi, %rsi
	je	.LBB52_12
	movq	16(%r15), %rdx
	movq	%r14, %rdi
	jmp	.LBB52_11
.LBB52_13:
.Ltmp438:
	movq	%rax, %rbx
.Ltmp439:
	movq	%r15, %rdi
	callq	*(%r14)
.Ltmp440:
	jmp	.LBB52_14
.LBB52_8:
.Ltmp441:
	jmp	.LBB52_9
.LBB52_26:
.Ltmp432:
	movq	%rax, %rbx
.Ltmp433:
	movq	%r15, %rdi
	callq	*(%r14)
.Ltmp434:
.LBB52_14:
	movq	8(%r14), %rsi
	testq	%rsi, %rsi
	je	.LBB52_17
	movq	16(%r14), %rdx
	movq	%r15, %rdi
.LBB52_16:
	callq	*__rust_dealloc@GOTPCREL(%rip)
.LBB52_17:
	movq	%rbx, %rdi
	callq	_Unwind_Resume@PLT
.LBB52_25:
.Ltmp435:
.LBB52_9:
	movq	8(%r14), %rsi
	testq	%rsi, %rsi
	je	.LBB52_12
	movq	16(%r14), %rdx
	movq	%r15, %rdi
.LBB52_11:
	callq	*__rust_dealloc@GOTPCREL(%rip)
.LBB52_12:
	callq	*core::panicking::panic_in_cleanup@GOTPCREL(%rip)
.Lfunc_end52:
	.size	bevy_reflect::impls::std::_::<impl bevy_reflect::reflect::Reflect for u32>::set, .Lfunc_end52-bevy_reflect::impls::std::_::<impl bevy_reflect::reflect::Reflect for u32>::set
	.cfi_endproc
	.section	".gcc_except_table.bevy_reflect::impls::std::_::<impl bevy_reflect::reflect::Reflect for u32>::set","a",@progbits
	.p2align	2, 0x0
GCC_except_table52:
.Lexception25:
	.byte	255
	.byte	155
	.uleb128 .Lttbase23-.Lttbaseref23
.Lttbaseref23:
	.byte	1
	.uleb128 .Lcst_end25-.Lcst_begin25
.Lcst_begin25:
	.uleb128 .Ltmp430-.Lfunc_begin25
	.uleb128 .Ltmp431-.Ltmp430
	.uleb128 .Ltmp432-.Lfunc_begin25
	.byte	0
	.uleb128 .Ltmp431-.Lfunc_begin25
	.uleb128 .Ltmp436-.Ltmp431
	.byte	0
	.byte	0
	.uleb128 .Ltmp436-.Lfunc_begin25
	.uleb128 .Ltmp437-.Ltmp436
	.uleb128 .Ltmp438-.Lfunc_begin25
	.byte	0
	.uleb128 .Ltmp442-.Lfunc_begin25
	.uleb128 .Ltmp443-.Ltmp442
	.uleb128 .Ltmp444-.Lfunc_begin25
	.byte	0
	.uleb128 .Ltmp445-.Lfunc_begin25
	.uleb128 .Ltmp446-.Ltmp445
	.uleb128 .Ltmp447-.Lfunc_begin25
	.byte	1
	.uleb128 .Ltmp439-.Lfunc_begin25
	.uleb128 .Ltmp440-.Ltmp439
	.uleb128 .Ltmp441-.Lfunc_begin25
	.byte	1
	.uleb128 .Ltmp433-.Lfunc_begin25
	.uleb128 .Ltmp434-.Ltmp433
	.uleb128 .Ltmp435-.Lfunc_begin25
	.byte	1
	.uleb128 .Ltmp434-.Lfunc_begin25
	.uleb128 .Lfunc_end52-.Ltmp434
	.byte	0
	.byte	0
.Lcst_end25:
	.byte	127
	.byte	0
	.p2align	2, 0x0
.Lttbase23:
	.byte	0
	.p2align	2, 0x0

	.section	".text.bevy_reflect::impls::std::_::<impl bevy_reflect::reflect::Reflect for u32>::apply","ax",@progbits
	.p2align	4, 0x90
	.type	bevy_reflect::impls::std::_::<impl bevy_reflect::reflect::Reflect for u32>::apply,@function
bevy_reflect::impls::std::_::<impl bevy_reflect::reflect::Reflect for u32>::apply:
	.cfi_startproc
	pushq	%r14
	.cfi_def_cfa_offset 16
	pushq	%rbx
	.cfi_def_cfa_offset 24
	subq	$88, %rsp
	.cfi_def_cfa_offset 112
	.cfi_offset %rbx, -24
	.cfi_offset %r14, -16
	movq	%rdi, %rbx
	movq	%rsi, %rdi
	callq	*112(%rdx)
	movq	%rax, %r14
	movq	%rax, %rdi
	callq	*24(%rdx)
	testq	%r14, %r14
	je	.LBB53_3
	movabsq	$4518903163082958039, %rcx
	xorq	%rcx, %rax
	movabsq	$1403077013027291752, %rcx
	xorq	%rcx, %rdx
	orq	%rax, %rdx
	jne	.LBB53_3
	movl	(%r14), %eax
	movl	%eax, (%rbx)
	addq	$88, %rsp
	.cfi_def_cfa_offset 24
	popq	%rbx
	.cfi_def_cfa_offset 16
	popq	%r14
	.cfi_def_cfa_offset 8
	retq
.LBB53_3:
	.cfi_def_cfa_offset 112
	leaq	.Lanon.f381d664011984525626c761c6d28b35.88(%rip), %rax
	movq	%rax, 24(%rsp)
	movq	$3, 32(%rsp)
	leaq	24(%rsp), %rax
	movq	%rax, 8(%rsp)
	leaq	<&T as core::fmt::Display>::fmt(%rip), %rax
	movq	%rax, 16(%rsp)
	leaq	.Lanon.f381d664011984525626c761c6d28b35.87(%rip), %rax
	movq	%rax, 40(%rsp)
	movq	$2, 48(%rsp)
	movq	$0, 72(%rsp)
	leaq	8(%rsp), %rax
	movq	%rax, 56(%rsp)
	movq	$1, 64(%rsp)
	leaq	.Lanon.f381d664011984525626c761c6d28b35.90(%rip), %rsi
	leaq	40(%rsp), %rdi
	callq	*core::panicking::panic_fmt@GOTPCREL(%rip)
.Lfunc_end53:
	.size	bevy_reflect::impls::std::_::<impl bevy_reflect::reflect::Reflect for u32>::apply, .Lfunc_end53-bevy_reflect::impls::std::_::<impl bevy_reflect::reflect::Reflect for u32>::apply
	.cfi_endproc

	.section	".text.bevy_reflect::impls::std::_::<impl bevy_reflect::reflect::Reflect for u32>::as_any","ax",@progbits
	.p2align	4, 0x90
	.type	bevy_reflect::impls::std::_::<impl bevy_reflect::reflect::Reflect for u32>::as_any,@function
bevy_reflect::impls::std::_::<impl bevy_reflect::reflect::Reflect for u32>::as_any:
	.cfi_startproc
	movq	%rdi, %rax
	leaq	.Lanon.f381d664011984525626c761c6d28b35.82(%rip), %rdx
	retq
.Lfunc_end54:
	.size	bevy_reflect::impls::std::_::<impl bevy_reflect::reflect::Reflect for u32>::as_any, .Lfunc_end54-bevy_reflect::impls::std::_::<impl bevy_reflect::reflect::Reflect for u32>::as_any
	.cfi_endproc

	.section	".text.bevy_reflect::impls::std::_::<impl bevy_reflect::reflect::Reflect for u32>::into_any","ax",@progbits
	.p2align	4, 0x90
	.type	bevy_reflect::impls::std::_::<impl bevy_reflect::reflect::Reflect for u32>::into_any,@function
bevy_reflect::impls::std::_::<impl bevy_reflect::reflect::Reflect for u32>::into_any:
	.cfi_startproc
	movq	%rdi, %rax
	leaq	.Lanon.f381d664011984525626c761c6d28b35.82(%rip), %rdx
	retq
.Lfunc_end55:
	.size	bevy_reflect::impls::std::_::<impl bevy_reflect::reflect::Reflect for u32>::into_any, .Lfunc_end55-bevy_reflect::impls::std::_::<impl bevy_reflect::reflect::Reflect for u32>::into_any
	.cfi_endproc

	.section	".text.bevy_reflect::impls::std::_::<impl bevy_reflect::reflect::Reflect for usize>::as_any_mut","ax",@progbits
	.p2align	4, 0x90
	.type	bevy_reflect::impls::std::_::<impl bevy_reflect::reflect::Reflect for usize>::as_any_mut,@function
bevy_reflect::impls::std::_::<impl bevy_reflect::reflect::Reflect for usize>::as_any_mut:
	.cfi_startproc
	movq	%rdi, %rax
	leaq	.Lanon.f381d664011984525626c761c6d28b35.91(%rip), %rdx
	retq
.Lfunc_end56:
	.size	bevy_reflect::impls::std::_::<impl bevy_reflect::reflect::Reflect for usize>::as_any_mut, .Lfunc_end56-bevy_reflect::impls::std::_::<impl bevy_reflect::reflect::Reflect for usize>::as_any_mut
	.cfi_endproc

	.section	".text.bevy_reflect::impls::std::_::<impl bevy_reflect::reflect::Reflect for usize>::as_reflect","ax",@progbits
	.p2align	4, 0x90
	.type	bevy_reflect::impls::std::_::<impl bevy_reflect::reflect::Reflect for usize>::as_reflect,@function
bevy_reflect::impls::std::_::<impl bevy_reflect::reflect::Reflect for usize>::as_reflect:
	.cfi_startproc
	movq	%rdi, %rax
	leaq	.Lanon.f381d664011984525626c761c6d28b35.93(%rip), %rdx
	retq
.Lfunc_end57:
	.size	bevy_reflect::impls::std::_::<impl bevy_reflect::reflect::Reflect for usize>::as_reflect, .Lfunc_end57-bevy_reflect::impls::std::_::<impl bevy_reflect::reflect::Reflect for usize>::as_reflect
	.cfi_endproc

	.section	".text.bevy_reflect::impls::std::_::<impl bevy_reflect::reflect::Reflect for usize>::clone_value","ax",@progbits
	.p2align	4, 0x90
	.type	bevy_reflect::impls::std::_::<impl bevy_reflect::reflect::Reflect for usize>::clone_value,@function
bevy_reflect::impls::std::_::<impl bevy_reflect::reflect::Reflect for usize>::clone_value:
	.cfi_startproc
	pushq	%rbx
	.cfi_def_cfa_offset 16
	.cfi_offset %rbx, -16
	movq	(%rdi), %rbx
	movq	__rust_no_alloc_shim_is_unstable@GOTPCREL(%rip), %rax
	movzbl	(%rax), %eax
	movl	$8, %edi
	movl	$8, %esi
	callq	*__rust_alloc@GOTPCREL(%rip)
	testq	%rax, %rax
	je	.LBB58_2
	movq	%rbx, (%rax)
	leaq	.Lanon.f381d664011984525626c761c6d28b35.93(%rip), %rdx
	popq	%rbx
	.cfi_def_cfa_offset 8
	retq
.LBB58_2:
	.cfi_def_cfa_offset 16
	movl	$8, %edi
	movl	$8, %esi
	callq	*alloc::alloc::handle_alloc_error@GOTPCREL(%rip)
.Lfunc_end58:
	.size	bevy_reflect::impls::std::_::<impl bevy_reflect::reflect::Reflect for usize>::clone_value, .Lfunc_end58-bevy_reflect::impls::std::_::<impl bevy_reflect::reflect::Reflect for usize>::clone_value
	.cfi_endproc

	.section	".text.bevy_reflect::impls::std::_::<impl bevy_reflect::reflect::Reflect for usize>::reflect_mut","ax",@progbits
	.p2align	4, 0x90
	.type	bevy_reflect::impls::std::_::<impl bevy_reflect::reflect::Reflect for usize>::reflect_mut,@function
bevy_reflect::impls::std::_::<impl bevy_reflect::reflect::Reflect for usize>::reflect_mut:
	.cfi_startproc
	movq	%rdi, %rax
	movq	%rsi, 8(%rdi)
	leaq	.Lanon.f381d664011984525626c761c6d28b35.93(%rip), %rcx
	movq	%rcx, 16(%rdi)
	movq	$7, (%rdi)
	retq
.Lfunc_end59:
	.size	bevy_reflect::impls::std::_::<impl bevy_reflect::reflect::Reflect for usize>::reflect_mut, .Lfunc_end59-bevy_reflect::impls::std::_::<impl bevy_reflect::reflect::Reflect for usize>::reflect_mut
	.cfi_endproc

	.section	".text.bevy_reflect::impls::std::_::<impl bevy_reflect::reflect::Reflect for usize>::reflect_ref","ax",@progbits
	.p2align	4, 0x90
	.type	bevy_reflect::impls::std::_::<impl bevy_reflect::reflect::Reflect for usize>::reflect_ref,@function
bevy_reflect::impls::std::_::<impl bevy_reflect::reflect::Reflect for usize>::reflect_ref:
	.cfi_startproc
	movq	%rdi, %rax
	movq	%rsi, 8(%rdi)
	leaq	.Lanon.f381d664011984525626c761c6d28b35.93(%rip), %rcx
	movq	%rcx, 16(%rdi)
	movq	$7, (%rdi)
	retq
.Lfunc_end60:
	.size	bevy_reflect::impls::std::_::<impl bevy_reflect::reflect::Reflect for usize>::reflect_ref, .Lfunc_end60-bevy_reflect::impls::std::_::<impl bevy_reflect::reflect::Reflect for usize>::reflect_ref
	.cfi_endproc

	.section	".text.bevy_reflect::impls::std::_::<impl bevy_reflect::reflect::Reflect for usize>::into_reflect","ax",@progbits
	.p2align	4, 0x90
	.type	bevy_reflect::impls::std::_::<impl bevy_reflect::reflect::Reflect for usize>::into_reflect,@function
bevy_reflect::impls::std::_::<impl bevy_reflect::reflect::Reflect for usize>::into_reflect:
	.cfi_startproc
	movq	%rdi, %rax
	leaq	.Lanon.f381d664011984525626c761c6d28b35.93(%rip), %rdx
	retq
.Lfunc_end61:
	.size	bevy_reflect::impls::std::_::<impl bevy_reflect::reflect::Reflect for usize>::into_reflect, .Lfunc_end61-bevy_reflect::impls::std::_::<impl bevy_reflect::reflect::Reflect for usize>::into_reflect
	.cfi_endproc

	.section	".text.bevy_reflect::impls::std::_::<impl bevy_reflect::reflect::Reflect for usize>::reflect_kind","ax",@progbits
	.p2align	4, 0x90
	.type	bevy_reflect::impls::std::_::<impl bevy_reflect::reflect::Reflect for usize>::reflect_kind,@function
bevy_reflect::impls::std::_::<impl bevy_reflect::reflect::Reflect for usize>::reflect_kind:
	.cfi_startproc
	movb	$7, %al
	retq
.Lfunc_end62:
	.size	bevy_reflect::impls::std::_::<impl bevy_reflect::reflect::Reflect for usize>::reflect_kind, .Lfunc_end62-bevy_reflect::impls::std::_::<impl bevy_reflect::reflect::Reflect for usize>::reflect_kind
	.cfi_endproc

	.section	".text.bevy_reflect::impls::std::_::<impl bevy_reflect::reflect::Reflect for usize>::reflect_owned","ax",@progbits
	.p2align	4, 0x90
	.type	bevy_reflect::impls::std::_::<impl bevy_reflect::reflect::Reflect for usize>::reflect_owned,@function
bevy_reflect::impls::std::_::<impl bevy_reflect::reflect::Reflect for usize>::reflect_owned:
	.cfi_startproc
	movq	%rdi, %rax
	movq	%rsi, 8(%rdi)
	leaq	.Lanon.f381d664011984525626c761c6d28b35.93(%rip), %rcx
	movq	%rcx, 16(%rdi)
	movq	$7, (%rdi)
	retq
.Lfunc_end63:
	.size	bevy_reflect::impls::std::_::<impl bevy_reflect::reflect::Reflect for usize>::reflect_owned, .Lfunc_end63-bevy_reflect::impls::std::_::<impl bevy_reflect::reflect::Reflect for usize>::reflect_owned
	.cfi_endproc

	.section	".text.bevy_reflect::impls::std::_::<impl bevy_reflect::reflect::Reflect for usize>::as_reflect_mut","ax",@progbits
	.p2align	4, 0x90
	.type	bevy_reflect::impls::std::_::<impl bevy_reflect::reflect::Reflect for usize>::as_reflect_mut,@function
bevy_reflect::impls::std::_::<impl bevy_reflect::reflect::Reflect for usize>::as_reflect_mut:
	.cfi_startproc
	movq	%rdi, %rax
	leaq	.Lanon.f381d664011984525626c761c6d28b35.93(%rip), %rdx
	retq
.Lfunc_end64:
	.size	bevy_reflect::impls::std::_::<impl bevy_reflect::reflect::Reflect for usize>::as_reflect_mut, .Lfunc_end64-bevy_reflect::impls::std::_::<impl bevy_reflect::reflect::Reflect for usize>::as_reflect_mut
	.cfi_endproc

	.section	".text.bevy_reflect::impls::std::_::<impl bevy_reflect::reflect::Reflect for usize>::get_represented_type_info","ax",@progbits
	.p2align	4, 0x90
	.type	bevy_reflect::impls::std::_::<impl bevy_reflect::reflect::Reflect for usize>::get_represented_type_info,@function
bevy_reflect::impls::std::_::<impl bevy_reflect::reflect::Reflect for usize>::get_represented_type_info:
	.cfi_startproc
	jmpq	*bevy_reflect::impls::std::_::<impl bevy_reflect::type_info::Typed for usize>::type_info@GOTPCREL(%rip)
.Lfunc_end65:
	.size	bevy_reflect::impls::std::_::<impl bevy_reflect::reflect::Reflect for usize>::get_represented_type_info, .Lfunc_end65-bevy_reflect::impls::std::_::<impl bevy_reflect::reflect::Reflect for usize>::get_represented_type_info
	.cfi_endproc

	.section	".text.bevy_reflect::impls::std::_::<impl bevy_reflect::reflect::Reflect for usize>::set","ax",@progbits
	.p2align	4, 0x90
	.type	bevy_reflect::impls::std::_::<impl bevy_reflect::reflect::Reflect for usize>::set,@function
bevy_reflect::impls::std::_::<impl bevy_reflect::reflect::Reflect for usize>::set:
.Lfunc_begin26:
	.cfi_startproc
	.cfi_personality 155, DW.ref.rust_eh_personality
	.cfi_lsda 27, .Lexception26
	pushq	%rbp
	.cfi_def_cfa_offset 16
	pushq	%r15
	.cfi_def_cfa_offset 24
	pushq	%r14
	.cfi_def_cfa_offset 32
	pushq	%r13
	.cfi_def_cfa_offset 40
	pushq	%r12
	.cfi_def_cfa_offset 48
	pushq	%rbx
	.cfi_def_cfa_offset 56
	subq	$24, %rsp
	.cfi_def_cfa_offset 80
	.cfi_offset %rbx, -56
	.cfi_offset %r12, -48
	.cfi_offset %r13, -40
	.cfi_offset %r14, -32
	.cfi_offset %r15, -24
	.cfi_offset %rbp, -16
	movq	%rdx, %rbx
	movq	%rsi, %r15
	movq	%rdi, %r14
.Ltmp448:
	movq	%rsi, %rdi
	callq	*64(%rdx)
.Ltmp449:
	movabsq	$8519994227001858441, %r13
	movabsq	$-7923924532561682234, %rbp
	xorq	%rbp, %rax
	xorq	%r13, %rdx
	orq	%rax, %rdx
	jne	.LBB66_7
	movq	%r15, %rdi
	callq	*104(%rbx)
	movq	%rax, %r15
	movq	%rdx, %r12
.Ltmp454:
	movq	%rax, %rdi
	callq	*24(%rdx)
.Ltmp455:
	xorq	%rbp, %rax
	xorq	%r13, %rdx
	orq	%rax, %rdx
	je	.LBB66_6
	testq	%r15, %r15
	jne	.LBB66_8
	movq	%r12, %r15
.LBB66_6:
	movq	(%r15), %r12
	movl	$8, %esi
	movl	$8, %edx
	movq	%r15, %rdi
	callq	*__rust_dealloc@GOTPCREL(%rip)
	movq	%r12, (%r14)
	xorl	%r15d, %r15d
.LBB66_7:
	movq	%r15, %rax
	movq	%rbx, %rdx
	addq	$24, %rsp
	.cfi_def_cfa_offset 56
	popq	%rbx
	.cfi_def_cfa_offset 48
	popq	%r12
	.cfi_def_cfa_offset 40
	popq	%r13
	.cfi_def_cfa_offset 32
	popq	%r14
	.cfi_def_cfa_offset 24
	popq	%r15
	.cfi_def_cfa_offset 16
	popq	%rbp
	.cfi_def_cfa_offset 8
	retq
.LBB66_8:
	.cfi_def_cfa_offset 80
	movq	%r15, 8(%rsp)
	movq	%r12, 16(%rsp)
.Ltmp460:
	leaq	.Lanon.f381d664011984525626c761c6d28b35.158(%rip), %rdi
	leaq	.Lanon.f381d664011984525626c761c6d28b35.159(%rip), %rcx
	leaq	.Lanon.f381d664011984525626c761c6d28b35.137(%rip), %r8
	leaq	8(%rsp), %rdx
	movl	$43, %esi
	callq	*core::result::unwrap_failed@GOTPCREL(%rip)
.Ltmp461:
	ud2
.LBB66_10:
.Ltmp462:
	movq	%rax, %r14
	movq	8(%rsp), %rbx
	movq	16(%rsp), %r15
.Ltmp463:
	movq	%rbx, %rdi
	callq	*(%r15)
.Ltmp464:
	movq	8(%r15), %rsi
	testq	%rsi, %rsi
	je	.LBB66_25
	movq	16(%r15), %rdx
	movq	%rbx, %rdi
	jmp	.LBB66_24
.LBB66_13:
.Ltmp465:
	movq	8(%r15), %rsi
	testq	%rsi, %rsi
	je	.LBB66_30
	movq	16(%r15), %rdx
	movq	%rbx, %rdi
	jmp	.LBB66_29
.LBB66_15:
.Ltmp456:
	movq	%rax, %r14
.Ltmp457:
	movq	%r15, %rdi
	callq	*(%r12)
.Ltmp458:
	movq	8(%r12), %rsi
	testq	%rsi, %rsi
	je	.LBB66_25
	movq	16(%r12), %rdx
	jmp	.LBB66_23
.LBB66_18:
.Ltmp459:
	movq	8(%r12), %rsi
	testq	%rsi, %rsi
	je	.LBB66_30
	movq	16(%r12), %rdx
	jmp	.LBB66_28
.LBB66_20:
.Ltmp450:
	movq	%rax, %r14
.Ltmp451:
	movq	%r15, %rdi
	callq	*(%rbx)
.Ltmp452:
	movq	8(%rbx), %rsi
	testq	%rsi, %rsi
	je	.LBB66_25
	movq	16(%rbx), %rdx
.LBB66_23:
	movq	%r15, %rdi
.LBB66_24:
	callq	*__rust_dealloc@GOTPCREL(%rip)
.LBB66_25:
	movq	%r14, %rdi
	callq	_Unwind_Resume@PLT
.LBB66_26:
.Ltmp453:
	movq	8(%rbx), %rsi
	testq	%rsi, %rsi
	je	.LBB66_30
	movq	16(%rbx), %rdx
.LBB66_28:
	movq	%r15, %rdi
.LBB66_29:
	callq	*__rust_dealloc@GOTPCREL(%rip)
.LBB66_30:
	callq	*core::panicking::panic_in_cleanup@GOTPCREL(%rip)
.Lfunc_end66:
	.size	bevy_reflect::impls::std::_::<impl bevy_reflect::reflect::Reflect for usize>::set, .Lfunc_end66-bevy_reflect::impls::std::_::<impl bevy_reflect::reflect::Reflect for usize>::set
	.cfi_endproc
	.section	".gcc_except_table.bevy_reflect::impls::std::_::<impl bevy_reflect::reflect::Reflect for usize>::set","a",@progbits
	.p2align	2, 0x0
GCC_except_table66:
.Lexception26:
	.byte	255
	.byte	155
	.uleb128 .Lttbase24-.Lttbaseref24
.Lttbaseref24:
	.byte	1
	.uleb128 .Lcst_end26-.Lcst_begin26
.Lcst_begin26:
	.uleb128 .Ltmp448-.Lfunc_begin26
	.uleb128 .Ltmp449-.Ltmp448
	.uleb128 .Ltmp450-.Lfunc_begin26
	.byte	0
	.uleb128 .Ltmp449-.Lfunc_begin26
	.uleb128 .Ltmp454-.Ltmp449
	.byte	0
	.byte	0
	.uleb128 .Ltmp454-.Lfunc_begin26
	.uleb128 .Ltmp455-.Ltmp454
	.uleb128 .Ltmp456-.Lfunc_begin26
	.byte	0
	.uleb128 .Ltmp460-.Lfunc_begin26
	.uleb128 .Ltmp461-.Ltmp460
	.uleb128 .Ltmp462-.Lfunc_begin26
	.byte	0
	.uleb128 .Ltmp463-.Lfunc_begin26
	.uleb128 .Ltmp464-.Ltmp463
	.uleb128 .Ltmp465-.Lfunc_begin26
	.byte	1
	.uleb128 .Ltmp457-.Lfunc_begin26
	.uleb128 .Ltmp458-.Ltmp457
	.uleb128 .Ltmp459-.Lfunc_begin26
	.byte	1
	.uleb128 .Ltmp451-.Lfunc_begin26
	.uleb128 .Ltmp452-.Ltmp451
	.uleb128 .Ltmp453-.Lfunc_begin26
	.byte	1
	.uleb128 .Ltmp452-.Lfunc_begin26
	.uleb128 .Lfunc_end66-.Ltmp452
	.byte	0
	.byte	0
.Lcst_end26:
	.byte	127
	.byte	0
	.p2align	2, 0x0
.Lttbase24:
	.byte	0
	.p2align	2, 0x0

	.section	".text.bevy_reflect::impls::std::_::<impl bevy_reflect::reflect::Reflect for usize>::apply","ax",@progbits
	.p2align	4, 0x90
	.type	bevy_reflect::impls::std::_::<impl bevy_reflect::reflect::Reflect for usize>::apply,@function
bevy_reflect::impls::std::_::<impl bevy_reflect::reflect::Reflect for usize>::apply:
	.cfi_startproc
	pushq	%r14
	.cfi_def_cfa_offset 16
	pushq	%rbx
	.cfi_def_cfa_offset 24
	subq	$88, %rsp
	.cfi_def_cfa_offset 112
	.cfi_offset %rbx, -24
	.cfi_offset %r14, -16
	movq	%rdi, %rbx
	movq	%rsi, %rdi
	callq	*112(%rdx)
	movq	%rax, %r14
	movq	%rax, %rdi
	callq	*24(%rdx)
	testq	%r14, %r14
	je	.LBB67_3
	movabsq	$-7923924532561682234, %rcx
	xorq	%rcx, %rax
	movabsq	$8519994227001858441, %rcx
	xorq	%rcx, %rdx
	orq	%rax, %rdx
	jne	.LBB67_3
	movq	(%r14), %rax
	movq	%rax, (%rbx)
	addq	$88, %rsp
	.cfi_def_cfa_offset 24
	popq	%rbx
	.cfi_def_cfa_offset 16
	popq	%r14
	.cfi_def_cfa_offset 8
	retq
.LBB67_3:
	.cfi_def_cfa_offset 112
	leaq	.Lanon.f381d664011984525626c761c6d28b35.94(%rip), %rax
	movq	%rax, 24(%rsp)
	movq	$5, 32(%rsp)
	leaq	24(%rsp), %rax
	movq	%rax, 8(%rsp)
	leaq	<&T as core::fmt::Display>::fmt(%rip), %rax
	movq	%rax, 16(%rsp)
	leaq	.Lanon.f381d664011984525626c761c6d28b35.87(%rip), %rax
	movq	%rax, 40(%rsp)
	movq	$2, 48(%rsp)
	movq	$0, 72(%rsp)
	leaq	8(%rsp), %rax
	movq	%rax, 56(%rsp)
	movq	$1, 64(%rsp)
	leaq	.Lanon.f381d664011984525626c761c6d28b35.95(%rip), %rsi
	leaq	40(%rsp), %rdi
	callq	*core::panicking::panic_fmt@GOTPCREL(%rip)
.Lfunc_end67:
	.size	bevy_reflect::impls::std::_::<impl bevy_reflect::reflect::Reflect for usize>::apply, .Lfunc_end67-bevy_reflect::impls::std::_::<impl bevy_reflect::reflect::Reflect for usize>::apply
	.cfi_endproc

	.section	".text.bevy_reflect::impls::std::_::<impl bevy_reflect::reflect::Reflect for usize>::as_any","ax",@progbits
	.p2align	4, 0x90
	.type	bevy_reflect::impls::std::_::<impl bevy_reflect::reflect::Reflect for usize>::as_any,@function
bevy_reflect::impls::std::_::<impl bevy_reflect::reflect::Reflect for usize>::as_any:
	.cfi_startproc
	movq	%rdi, %rax
	leaq	.Lanon.f381d664011984525626c761c6d28b35.91(%rip), %rdx
	retq
.Lfunc_end68:
	.size	bevy_reflect::impls::std::_::<impl bevy_reflect::reflect::Reflect for usize>::as_any, .Lfunc_end68-bevy_reflect::impls::std::_::<impl bevy_reflect::reflect::Reflect for usize>::as_any
	.cfi_endproc

	.section	".text.bevy_reflect::impls::std::_::<impl bevy_reflect::reflect::Reflect for usize>::into_any","ax",@progbits
	.p2align	4, 0x90
	.type	bevy_reflect::impls::std::_::<impl bevy_reflect::reflect::Reflect for usize>::into_any,@function
bevy_reflect::impls::std::_::<impl bevy_reflect::reflect::Reflect for usize>::into_any:
	.cfi_startproc
	movq	%rdi, %rax
	leaq	.Lanon.f381d664011984525626c761c6d28b35.91(%rip), %rdx
	retq
.Lfunc_end69:
	.size	bevy_reflect::impls::std::_::<impl bevy_reflect::reflect::Reflect for usize>::into_any, .Lfunc_end69-bevy_reflect::impls::std::_::<impl bevy_reflect::reflect::Reflect for usize>::into_any
	.cfi_endproc

	.section	".text.bevy_reflect::impls::std::_::<impl bevy_reflect::type_path::TypePath for u32>::crate_name","ax",@progbits
	.p2align	4, 0x90
	.type	bevy_reflect::impls::std::_::<impl bevy_reflect::type_path::TypePath for u32>::crate_name,@function
bevy_reflect::impls::std::_::<impl bevy_reflect::type_path::TypePath for u32>::crate_name:
	.cfi_startproc
	xorl	%eax, %eax
	retq
.Lfunc_end70:
	.size	bevy_reflect::impls::std::_::<impl bevy_reflect::type_path::TypePath for u32>::crate_name, .Lfunc_end70-bevy_reflect::impls::std::_::<impl bevy_reflect::type_path::TypePath for u32>::crate_name
	.cfi_endproc

	.section	".text.bevy_reflect::impls::std::_::<impl bevy_reflect::type_path::TypePath for u32>::type_ident","ax",@progbits
	.p2align	4, 0x90
	.type	bevy_reflect::impls::std::_::<impl bevy_reflect::type_path::TypePath for u32>::type_ident,@function
bevy_reflect::impls::std::_::<impl bevy_reflect::type_path::TypePath for u32>::type_ident:
	.cfi_startproc
	leaq	.Lanon.f381d664011984525626c761c6d28b35.88(%rip), %rax
	movl	$3, %edx
	retq
.Lfunc_end71:
	.size	bevy_reflect::impls::std::_::<impl bevy_reflect::type_path::TypePath for u32>::type_ident, .Lfunc_end71-bevy_reflect::impls::std::_::<impl bevy_reflect::type_path::TypePath for u32>::type_ident
	.cfi_endproc

	.section	".text.bevy_reflect::impls::std::_::<impl bevy_reflect::type_path::TypePath for u32>::module_path","ax",@progbits
	.p2align	4, 0x90
	.type	bevy_reflect::impls::std::_::<impl bevy_reflect::type_path::TypePath for u32>::module_path,@function
bevy_reflect::impls::std::_::<impl bevy_reflect::type_path::TypePath for u32>::module_path:
	.cfi_startproc
	xorl	%eax, %eax
	retq
.Lfunc_end72:
	.size	bevy_reflect::impls::std::_::<impl bevy_reflect::type_path::TypePath for u32>::module_path, .Lfunc_end72-bevy_reflect::impls::std::_::<impl bevy_reflect::type_path::TypePath for u32>::module_path
	.cfi_endproc

	.section	".text.bevy_reflect::impls::std::_::<impl bevy_reflect::type_path::TypePath for u32>::short_type_path","ax",@progbits
	.p2align	4, 0x90
	.type	bevy_reflect::impls::std::_::<impl bevy_reflect::type_path::TypePath for u32>::short_type_path,@function
bevy_reflect::impls::std::_::<impl bevy_reflect::type_path::TypePath for u32>::short_type_path:
	.cfi_startproc
	leaq	.Lanon.f381d664011984525626c761c6d28b35.88(%rip), %rax
	movl	$3, %edx
	retq
.Lfunc_end73:
	.size	bevy_reflect::impls::std::_::<impl bevy_reflect::type_path::TypePath for u32>::short_type_path, .Lfunc_end73-bevy_reflect::impls::std::_::<impl bevy_reflect::type_path::TypePath for u32>::short_type_path
	.cfi_endproc

	.section	".text.bevy_reflect::impls::std::_::<impl bevy_reflect::type_path::TypePath for usize>::crate_name","ax",@progbits
	.p2align	4, 0x90
	.type	bevy_reflect::impls::std::_::<impl bevy_reflect::type_path::TypePath for usize>::crate_name,@function
bevy_reflect::impls::std::_::<impl bevy_reflect::type_path::TypePath for usize>::crate_name:
	.cfi_startproc
	xorl	%eax, %eax
	retq
.Lfunc_end74:
	.size	bevy_reflect::impls::std::_::<impl bevy_reflect::type_path::TypePath for usize>::crate_name, .Lfunc_end74-bevy_reflect::impls::std::_::<impl bevy_reflect::type_path::TypePath for usize>::crate_name
	.cfi_endproc

	.section	".text.bevy_reflect::impls::std::_::<impl bevy_reflect::type_path::TypePath for usize>::type_ident","ax",@progbits
	.p2align	4, 0x90
	.type	bevy_reflect::impls::std::_::<impl bevy_reflect::type_path::TypePath for usize>::type_ident,@function
bevy_reflect::impls::std::_::<impl bevy_reflect::type_path::TypePath for usize>::type_ident:
	.cfi_startproc
	leaq	.Lanon.f381d664011984525626c761c6d28b35.94(%rip), %rax
	movl	$5, %edx
	retq
.Lfunc_end75:
	.size	bevy_reflect::impls::std::_::<impl bevy_reflect::type_path::TypePath for usize>::type_ident, .Lfunc_end75-bevy_reflect::impls::std::_::<impl bevy_reflect::type_path::TypePath for usize>::type_ident
	.cfi_endproc

	.section	".text.bevy_reflect::impls::std::_::<impl bevy_reflect::type_path::TypePath for usize>::module_path","ax",@progbits
	.p2align	4, 0x90
	.type	bevy_reflect::impls::std::_::<impl bevy_reflect::type_path::TypePath for usize>::module_path,@function
bevy_reflect::impls::std::_::<impl bevy_reflect::type_path::TypePath for usize>::module_path:
	.cfi_startproc
	xorl	%eax, %eax
	retq
.Lfunc_end76:
	.size	bevy_reflect::impls::std::_::<impl bevy_reflect::type_path::TypePath for usize>::module_path, .Lfunc_end76-bevy_reflect::impls::std::_::<impl bevy_reflect::type_path::TypePath for usize>::module_path
	.cfi_endproc

	.section	".text.bevy_reflect::impls::std::_::<impl bevy_reflect::type_path::TypePath for usize>::short_type_path","ax",@progbits
	.p2align	4, 0x90
	.type	bevy_reflect::impls::std::_::<impl bevy_reflect::type_path::TypePath for usize>::short_type_path,@function
bevy_reflect::impls::std::_::<impl bevy_reflect::type_path::TypePath for usize>::short_type_path:
	.cfi_startproc
	leaq	.Lanon.f381d664011984525626c761c6d28b35.94(%rip), %rax
	movl	$5, %edx
	retq
.Lfunc_end77:
	.size	bevy_reflect::impls::std::_::<impl bevy_reflect::type_path::TypePath for usize>::short_type_path, .Lfunc_end77-bevy_reflect::impls::std::_::<impl bevy_reflect::type_path::TypePath for usize>::short_type_path
	.cfi_endproc

	.section	.text.bevy_reflect::reflect::Reflect::is_dynamic,"ax",@progbits
	.p2align	4, 0x90
	.type	bevy_reflect::reflect::Reflect::is_dynamic,@function
bevy_reflect::reflect::Reflect::is_dynamic:
	.cfi_startproc
	xorl	%eax, %eax
	retq
.Lfunc_end78:
	.size	bevy_reflect::reflect::Reflect::is_dynamic, .Lfunc_end78-bevy_reflect::reflect::Reflect::is_dynamic
	.cfi_endproc

	.section	.text.bevy_reflect::reflect::Reflect::is_dynamic,"ax",@progbits
	.p2align	4, 0x90
	.type	bevy_reflect::reflect::Reflect::is_dynamic,@function
bevy_reflect::reflect::Reflect::is_dynamic:
	.cfi_startproc
	xorl	%eax, %eax
	retq
.Lfunc_end79:
	.size	bevy_reflect::reflect::Reflect::is_dynamic, .Lfunc_end79-bevy_reflect::reflect::Reflect::is_dynamic
	.cfi_endproc

	.section	.text.bevy_reflect::reflect::Reflect::is_dynamic,"ax",@progbits
	.p2align	4, 0x90
	.type	bevy_reflect::reflect::Reflect::is_dynamic,@function
bevy_reflect::reflect::Reflect::is_dynamic:
	.cfi_startproc
	xorl	%eax, %eax
	retq
.Lfunc_end80:
	.size	bevy_reflect::reflect::Reflect::is_dynamic, .Lfunc_end80-bevy_reflect::reflect::Reflect::is_dynamic
	.cfi_endproc

	.section	.text.bevy_reflect::reflect::Reflect::is_dynamic,"ax",@progbits
	.p2align	4, 0x90
	.type	bevy_reflect::reflect::Reflect::is_dynamic,@function
bevy_reflect::reflect::Reflect::is_dynamic:
	.cfi_startproc
	xorl	%eax, %eax
	retq
.Lfunc_end81:
	.size	bevy_reflect::reflect::Reflect::is_dynamic, .Lfunc_end81-bevy_reflect::reflect::Reflect::is_dynamic
	.cfi_endproc

	.section	.text.bevy_reflect::reflect::Reflect::is_dynamic,"ax",@progbits
	.p2align	4, 0x90
	.type	bevy_reflect::reflect::Reflect::is_dynamic,@function
bevy_reflect::reflect::Reflect::is_dynamic:
	.cfi_startproc
	xorl	%eax, %eax
	retq
.Lfunc_end82:
	.size	bevy_reflect::reflect::Reflect::is_dynamic, .Lfunc_end82-bevy_reflect::reflect::Reflect::is_dynamic
	.cfi_endproc

	.section	.text.bevy_reflect::reflect::Reflect::is_dynamic,"ax",@progbits
	.p2align	4, 0x90
	.type	bevy_reflect::reflect::Reflect::is_dynamic,@function
bevy_reflect::reflect::Reflect::is_dynamic:
	.cfi_startproc
	xorl	%eax, %eax
	retq
.Lfunc_end83:
	.size	bevy_reflect::reflect::Reflect::is_dynamic, .Lfunc_end83-bevy_reflect::reflect::Reflect::is_dynamic
	.cfi_endproc

	.section	.text.bevy_reflect::reflect::Reflect::is_dynamic,"ax",@progbits
	.p2align	4, 0x90
	.type	bevy_reflect::reflect::Reflect::is_dynamic,@function
bevy_reflect::reflect::Reflect::is_dynamic:
	.cfi_startproc
	xorl	%eax, %eax
	retq
.Lfunc_end84:
	.size	bevy_reflect::reflect::Reflect::is_dynamic, .Lfunc_end84-bevy_reflect::reflect::Reflect::is_dynamic
	.cfi_endproc

	.section	.text.bevy_reflect::reflect::Reflect::reflect_hash,"ax",@progbits
	.p2align	4, 0x90
	.type	bevy_reflect::reflect::Reflect::reflect_hash,@function
bevy_reflect::reflect::Reflect::reflect_hash:
	.cfi_startproc
	xorl	%eax, %eax
	retq
.Lfunc_end85:
	.size	bevy_reflect::reflect::Reflect::reflect_hash, .Lfunc_end85-bevy_reflect::reflect::Reflect::reflect_hash
	.cfi_endproc

	.section	.text.bevy_reflect::reflect::Reflect::reflect_hash,"ax",@progbits
	.p2align	4, 0x90
	.type	bevy_reflect::reflect::Reflect::reflect_hash,@function
bevy_reflect::reflect::Reflect::reflect_hash:
	.cfi_startproc
	xorl	%eax, %eax
	retq
.Lfunc_end86:
	.size	bevy_reflect::reflect::Reflect::reflect_hash, .Lfunc_end86-bevy_reflect::reflect::Reflect::reflect_hash
	.cfi_endproc

	.section	.text.bevy_reflect::reflect::Reflect::reflect_hash,"ax",@progbits
	.p2align	4, 0x90
	.type	bevy_reflect::reflect::Reflect::reflect_hash,@function
bevy_reflect::reflect::Reflect::reflect_hash:
	.cfi_startproc
	xorl	%eax, %eax
	retq
.Lfunc_end87:
	.size	bevy_reflect::reflect::Reflect::reflect_hash, .Lfunc_end87-bevy_reflect::reflect::Reflect::reflect_hash
	.cfi_endproc

	.section	.text.bevy_reflect::reflect::Reflect::reflect_hash,"ax",@progbits
	.p2align	4, 0x90
	.type	bevy_reflect::reflect::Reflect::reflect_hash,@function
bevy_reflect::reflect::Reflect::reflect_hash:
	.cfi_startproc
	xorl	%eax, %eax
	retq
.Lfunc_end88:
	.size	bevy_reflect::reflect::Reflect::reflect_hash, .Lfunc_end88-bevy_reflect::reflect::Reflect::reflect_hash
	.cfi_endproc

	.section	.text.bevy_reflect::reflect::Reflect::reflect_hash,"ax",@progbits
	.p2align	4, 0x90
	.type	bevy_reflect::reflect::Reflect::reflect_hash,@function
bevy_reflect::reflect::Reflect::reflect_hash:
	.cfi_startproc
	xorl	%eax, %eax
	retq
.Lfunc_end89:
	.size	bevy_reflect::reflect::Reflect::reflect_hash, .Lfunc_end89-bevy_reflect::reflect::Reflect::reflect_hash
	.cfi_endproc

	.section	.text.bevy_reflect::reflect::Reflect::serializable,"ax",@progbits
	.p2align	4, 0x90
	.type	bevy_reflect::reflect::Reflect::serializable,@function
bevy_reflect::reflect::Reflect::serializable:
	.cfi_startproc
	movq	%rdi, %rax
	movq	$2, (%rdi)
	retq
.Lfunc_end90:
	.size	bevy_reflect::reflect::Reflect::serializable, .Lfunc_end90-bevy_reflect::reflect::Reflect::serializable
	.cfi_endproc

	.section	.text.bevy_reflect::reflect::Reflect::serializable,"ax",@progbits
	.p2align	4, 0x90
	.type	bevy_reflect::reflect::Reflect::serializable,@function
bevy_reflect::reflect::Reflect::serializable:
	.cfi_startproc
	movq	%rdi, %rax
	movq	$2, (%rdi)
	retq
.Lfunc_end91:
	.size	bevy_reflect::reflect::Reflect::serializable, .Lfunc_end91-bevy_reflect::reflect::Reflect::serializable
	.cfi_endproc

	.section	.text.bevy_reflect::reflect::Reflect::serializable,"ax",@progbits
	.p2align	4, 0x90
	.type	bevy_reflect::reflect::Reflect::serializable,@function
bevy_reflect::reflect::Reflect::serializable:
	.cfi_startproc
	movq	%rdi, %rax
	movq	$2, (%rdi)
	retq
.Lfunc_end92:
	.size	bevy_reflect::reflect::Reflect::serializable, .Lfunc_end92-bevy_reflect::reflect::Reflect::serializable
	.cfi_endproc

	.section	.text.bevy_reflect::reflect::Reflect::serializable,"ax",@progbits
	.p2align	4, 0x90
	.type	bevy_reflect::reflect::Reflect::serializable,@function
bevy_reflect::reflect::Reflect::serializable:
	.cfi_startproc
	movq	%rdi, %rax
	movq	$2, (%rdi)
	retq
.Lfunc_end93:
	.size	bevy_reflect::reflect::Reflect::serializable, .Lfunc_end93-bevy_reflect::reflect::Reflect::serializable
	.cfi_endproc

	.section	.text.bevy_reflect::reflect::Reflect::serializable,"ax",@progbits
	.p2align	4, 0x90
	.type	bevy_reflect::reflect::Reflect::serializable,@function
bevy_reflect::reflect::Reflect::serializable:
	.cfi_startproc
	movq	%rdi, %rax
	movq	$2, (%rdi)
	retq
.Lfunc_end94:
	.size	bevy_reflect::reflect::Reflect::serializable, .Lfunc_end94-bevy_reflect::reflect::Reflect::serializable
	.cfi_endproc

	.section	.text.bevy_reflect::reflect::Reflect::serializable,"ax",@progbits
	.p2align	4, 0x90
	.type	bevy_reflect::reflect::Reflect::serializable,@function
bevy_reflect::reflect::Reflect::serializable:
	.cfi_startproc
	movq	%rdi, %rax
	movq	$2, (%rdi)
	retq
.Lfunc_end95:
	.size	bevy_reflect::reflect::Reflect::serializable, .Lfunc_end95-bevy_reflect::reflect::Reflect::serializable
	.cfi_endproc

	.section	.text.bevy_reflect::reflect::Reflect::serializable,"ax",@progbits
	.p2align	4, 0x90
	.type	bevy_reflect::reflect::Reflect::serializable,@function
bevy_reflect::reflect::Reflect::serializable:
	.cfi_startproc
	movq	%rdi, %rax
	movq	$2, (%rdi)
	retq
.Lfunc_end96:
	.size	bevy_reflect::reflect::Reflect::serializable, .Lfunc_end96-bevy_reflect::reflect::Reflect::serializable
	.cfi_endproc

	.section	.text.bevy_reflect::reflect::Reflect::serializable,"ax",@progbits
	.p2align	4, 0x90
	.type	bevy_reflect::reflect::Reflect::serializable,@function
bevy_reflect::reflect::Reflect::serializable:
	.cfi_startproc
	movq	%rdi, %rax
	movq	$2, (%rdi)
	retq
.Lfunc_end97:
	.size	bevy_reflect::reflect::Reflect::serializable, .Lfunc_end97-bevy_reflect::reflect::Reflect::serializable
	.cfi_endproc

	.section	.text.bevy_reflect::reflect::Reflect::serializable,"ax",@progbits
	.p2align	4, 0x90
	.type	bevy_reflect::reflect::Reflect::serializable,@function
bevy_reflect::reflect::Reflect::serializable:
	.cfi_startproc
	movq	%rdi, %rax
	movq	$2, (%rdi)
	retq
.Lfunc_end98:
	.size	bevy_reflect::reflect::Reflect::serializable, .Lfunc_end98-bevy_reflect::reflect::Reflect::serializable
	.cfi_endproc

	.section	.text.bevy_reflect::reflect::Reflect::debug,"ax",@progbits
	.p2align	4, 0x90
	.type	bevy_reflect::reflect::Reflect::debug,@function
bevy_reflect::reflect::Reflect::debug:
	.cfi_startproc
	subq	$88, %rsp
	.cfi_def_cfa_offset 96
	movq	%rsi, %rdi
	leaq	.Lanon.f381d664011984525626c761c6d28b35.816(%rip), %rax
	movq	%rax, 24(%rsp)
	movq	$24, 32(%rsp)
	leaq	24(%rsp), %rax
	movq	%rax, 8(%rsp)
	leaq	<&T as core::fmt::Display>::fmt(%rip), %rax
	movq	%rax, 16(%rsp)
	leaq	.Lanon.f381d664011984525626c761c6d28b35.98(%rip), %rax
	movq	%rax, 40(%rsp)
	movq	$2, 48(%rsp)
	movq	$0, 72(%rsp)
	leaq	8(%rsp), %rax
	movq	%rax, 56(%rsp)
	movq	$1, 64(%rsp)
	leaq	40(%rsp), %rsi
	callq	*core::fmt::Formatter::write_fmt@GOTPCREL(%rip)
	addq	$88, %rsp
	.cfi_def_cfa_offset 8
	retq
.Lfunc_end99:
	.size	bevy_reflect::reflect::Reflect::debug, .Lfunc_end99-bevy_reflect::reflect::Reflect::debug
	.cfi_endproc

	.section	.text.bevy_reflect::reflect::Reflect::debug,"ax",@progbits
	.p2align	4, 0x90
	.type	bevy_reflect::reflect::Reflect::debug,@function
bevy_reflect::reflect::Reflect::debug:
	.cfi_startproc
	movq	%rsi, %rdx
	leaq	.Lanon.f381d664011984525626c761c6d28b35.811(%rip), %rsi
	jmp	bevy_reflect::struct_trait::struct_debug
.Lfunc_end100:
	.size	bevy_reflect::reflect::Reflect::debug, .Lfunc_end100-bevy_reflect::reflect::Reflect::debug
	.cfi_endproc

	.section	.text.erased_serde::any::Any::invalid_cast_to,"ax",@progbits
	.p2align	4, 0x90
	.type	erased_serde::any::Any::invalid_cast_to,@function
erased_serde::any::Any::invalid_cast_to:
	.cfi_startproc
	subq	$56, %rsp
	.cfi_def_cfa_offset 64
	leaq	.Lanon.f381d664011984525626c761c6d28b35.103(%rip), %rax
	movq	%rax, 8(%rsp)
	movq	$1, 16(%rsp)
	leaq	.Lanon.f381d664011984525626c761c6d28b35.42(%rip), %rax
	movq	%rax, 24(%rsp)
	xorps	%xmm0, %xmm0
	movups	%xmm0, 32(%rsp)
	leaq	.Lanon.f381d664011984525626c761c6d28b35.105(%rip), %rsi
	leaq	8(%rsp), %rdi
	callq	*core::panicking::panic_fmt@GOTPCREL(%rip)
.Lfunc_end101:
	.size	erased_serde::any::Any::invalid_cast_to, .Lfunc_end101-erased_serde::any::Any::invalid_cast_to
	.cfi_endproc

	.section	.text.erased_serde::any::Any::new::inline_drop,"ax",@progbits
	.p2align	4, 0x90
	.type	erased_serde::any::Any::new::inline_drop,@function
erased_serde::any::Any::new::inline_drop:
	.cfi_startproc
	retq
.Lfunc_end102:
	.size	erased_serde::any::Any::new::inline_drop, .Lfunc_end102-erased_serde::any::Any::new::inline_drop
	.cfi_endproc

	.section	.text.tracing_core::callsite::Callsite::private_type_id,"ax",@progbits
	.p2align	4, 0x90
	.type	tracing_core::callsite::Callsite::private_type_id,@function
tracing_core::callsite::Callsite::private_type_id:
	.cfi_startproc
	movabsq	$8208552182544306186, %rax
	movabsq	$-3260311179592987598, %rdx
	retq
.Lfunc_end103:
	.size	tracing_core::callsite::Callsite::private_type_id, .Lfunc_end103-tracing_core::callsite::Callsite::private_type_id
	.cfi_endproc

	.section	".text.async_executor::LocalExecutor::spawn::{{closure}}","ax",@progbits
	.p2align	4, 0x90
	.type	async_executor::LocalExecutor::spawn::{{closure}},@function
async_executor::LocalExecutor::spawn::{{closure}}:
.Lfunc_begin27:
	.cfi_startproc
	.cfi_personality 155, DW.ref.rust_eh_personality
	.cfi_lsda 27, .Lexception27
	pushq	%r14
	.cfi_def_cfa_offset 16
	pushq	%rbx
	.cfi_def_cfa_offset 24
	pushq	%rax
	.cfi_def_cfa_offset 32
	.cfi_offset %rbx, -24
	.cfi_offset %r14, -16
	movq	%rdi, %rbx
	movzbl	256(%rdi), %eax
	leaq	.LJTI104_0(%rip), %rcx
	movslq	(%rcx,%rax,4), %rax
	addq	%rcx, %rax
	jmpq	*%rax
.LBB104_1:
	movq	128(%rbx), %rax
	movq	136(%rbx), %rcx
	movq	%rcx, (%rbx)
	movq	%rax, 8(%rbx)
	movups	144(%rbx), %xmm0
	movups	%xmm0, 16(%rbx)
	movups	160(%rbx), %xmm0
	movups	%xmm0, 32(%rbx)
	movups	176(%rbx), %xmm0
	movups	%xmm0, 48(%rbx)
	movups	192(%rbx), %xmm0
	movups	%xmm0, 64(%rbx)
	movups	208(%rbx), %xmm0
	movups	%xmm0, 80(%rbx)
	movups	224(%rbx), %xmm0
	movups	%xmm0, 96(%rbx)
	movups	240(%rbx), %xmm0
	movups	%xmm0, 112(%rbx)
	leaq	16(%rbx), %rax
	movzbl	120(%rbx), %ecx
	movl	$35, %esi
	leaq	str.3(%rip), %rdi
	leaq	.LJTI104_1(%rip), %rdx
	movslq	(%rdx,%rcx,4), %rcx
	addq	%rdx, %rcx
	jmpq	*%rcx
.LBB104_2:
	leaq	16(%rbx), %rax
	movzbl	120(%rbx), %ecx
	movl	$35, %esi
	leaq	str.3(%rip), %rdi
	leaq	.LJTI104_1(%rip), %rdx
	movslq	(%rdx,%rcx,4), %rcx
	addq	%rdx, %rcx
	jmpq	*%rcx
.LBB104_3:
	movups	72(%rbx), %xmm0
	movups	88(%rbx), %xmm1
	movups	104(%rbx), %xmm2
	movups	%xmm2, 32(%rax)
	movups	%xmm1, 16(%rax)
	movups	%xmm0, (%rax)
.LBB104_4:
	movzbl	56(%rbx), %eax
	testl	%eax, %eax
	jne	.LBB104_14
	movq	16(%rbx), %rax
	movq	24(%rbx), %rdx
	movq	(%rax), %rdi
	movq	8(%rax), %r14
	movq	88(%r14), %rsi
.Ltmp472:
	callq	bevy_ecs::schedule::executor::__rust_begin_short_backtrace::run
.Ltmp473:
	xorl	%eax, %eax
.LBB104_7:
	leaq	32(%rbx), %rdi
	movq	16(%rbx), %r8
	movq	48(%rbx), %rsi
.Ltmp478:
	movq	%rax, %rdx
	movq	%r14, %rcx
	callq	bevy_ecs::schedule::executor::multi_threaded::Context::system_completed
.Ltmp479:
	movb	$1, 56(%rbx)
	movq	64(%rbx), %rax
	cmpq	$0, 16(%rax)
	jne	.LBB104_18
	movb	$1, 24(%rax)
	movq	$0, 16(%rax)
	movq	64(%rbx), %rdi
	decq	(%rdi)
	jne	.LBB104_12
	decq	8(%rdi)
	jne	.LBB104_12
	movl	$32, %esi
	movl	$8, %edx
	callq	*__rust_dealloc@GOTPCREL(%rip)
.LBB104_12:
	movb	$1, 120(%rbx)
.Ltmp487:
	movq	%rbx, %rdi
	callq	core::ptr::drop_in_place<async_executor::CallOnDrop<async_executor::LocalExecutor::spawn<(),bevy_tasks::single_threaded_task_pool::Scope<()>::spawn_on_scope<bevy_ecs::schedule::executor::multi_threaded::ExecutorState::spawn_exclusive_system_task::{{closure}}>::{{closure}}>::{{closure}}::{{closure}}>>
.Ltmp488:
	movb	$1, 256(%rbx)
	addq	$8, %rsp
	.cfi_def_cfa_offset 24
	popq	%rbx
	.cfi_def_cfa_offset 16
	popq	%r14
	.cfi_def_cfa_offset 8
	retq
.LBB104_14:
	.cfi_def_cfa_offset 32
	cmpl	$1, %eax
	jne	.LBB104_16
	leaq	str.3(%rip), %rdi
	jmp	.LBB104_17
.LBB104_16:
	movl	$34, %esi
	leaq	str.4(%rip), %rdi
.LBB104_17:
.Ltmp469:
	leaq	.Lanon.f381d664011984525626c761c6d28b35.461(%rip), %rdx
	callq	*core::panicking::panic@GOTPCREL(%rip)
.Ltmp470:
	jmp	.LBB104_23
.LBB104_18:
.Ltmp481:
	leaq	.Lanon.f381d664011984525626c761c6d28b35.21(%rip), %rdi
	callq	*core::cell::panic_already_borrowed@GOTPCREL(%rip)
.Ltmp482:
	jmp	.LBB104_23
.LBB104_19:
	leaq	str.4(%rip), %rdi
	leaq	.Lanon.f381d664011984525626c761c6d28b35.109(%rip), %rdx
	movl	$34, %esi
	callq	*core::panicking::panic@GOTPCREL(%rip)
.LBB104_20:
	leaq	str.3(%rip), %rdi
	leaq	.Lanon.f381d664011984525626c761c6d28b35.109(%rip), %rdx
	movl	$35, %esi
	callq	*core::panicking::panic@GOTPCREL(%rip)
.LBB104_21:
	movl	$34, %esi
	leaq	str.4(%rip), %rdi
.LBB104_22:
.Ltmp466:
	leaq	.Lanon.f381d664011984525626c761c6d28b35.20(%rip), %rdx
	callq	*core::panicking::panic@GOTPCREL(%rip)
.Ltmp467:
.LBB104_23:
	ud2
.LBB104_24:
.Ltmp489:
	movq	%rax, %r14
	movb	$2, 256(%rbx)
	movq	%r14, %rdi
	callq	_Unwind_Resume@PLT
.LBB104_25:
.Ltmp483:
	jmp	.LBB104_32
.LBB104_26:
.Ltmp480:
	movq	%rax, %r14
	movb	$2, 56(%rbx)
	jmp	.LBB104_33
.LBB104_27:
.Ltmp474:
.Ltmp475:
	movq	%rax, %rdi
	callq	*std::panicking::try::cleanup@GOTPCREL(%rip)
.Ltmp476:
	movq	%rdx, %r14
	jmp	.LBB104_7
.LBB104_29:
.Ltmp477:
	callq	*core::panicking::panic_cannot_unwind@GOTPCREL(%rip)
.LBB104_30:
.Ltmp468:
	movq	%rax, %r14
	jmp	.LBB104_34
.LBB104_31:
.Ltmp471:
.LBB104_32:
	movq	%rax, %r14
.LBB104_33:
	movq	64(%rbx), %rdi
	callq	core::ptr::drop_in_place<alloc::rc::Rc<core::cell::RefCell<core::option::Option<()>>>>
	movb	$2, 120(%rbx)
.LBB104_34:
	leaq	16(%rbx), %rdi
	callq	core::ptr::drop_in_place<bevy_tasks::single_threaded_task_pool::Scope<()>::spawn_on_scope<bevy_ecs::schedule::executor::multi_threaded::ExecutorState::spawn_exclusive_system_task::{{closure}}>::{{closure}}>
.Ltmp484:
	movq	%rbx, %rdi
	callq	core::ptr::drop_in_place<async_executor::CallOnDrop<async_executor::LocalExecutor::spawn<(),bevy_tasks::single_threaded_task_pool::Scope<()>::spawn_on_scope<bevy_ecs::schedule::executor::multi_threaded::ExecutorState::spawn_exclusive_system_task::{{closure}}>::{{closure}}>::{{closure}}::{{closure}}>>
.Ltmp485:
	movb	$2, 256(%rbx)
	movq	%r14, %rdi
	callq	_Unwind_Resume@PLT
.LBB104_36:
.Ltmp486:
	callq	*core::panicking::panic_in_cleanup@GOTPCREL(%rip)
.Lfunc_end104:
	.size	async_executor::LocalExecutor::spawn::{{closure}}, .Lfunc_end104-async_executor::LocalExecutor::spawn::{{closure}}
	.cfi_endproc
	.section	".rodata.async_executor::LocalExecutor::spawn::{{closure}}","a",@progbits
	.p2align	2, 0x0
.LJTI104_0:
	.long	.LBB104_1-.LJTI104_0
	.long	.LBB104_20-.LJTI104_0
	.long	.LBB104_19-.LJTI104_0
	.long	.LBB104_2-.LJTI104_0
.LJTI104_1:
	.long	.LBB104_3-.LJTI104_1
	.long	.LBB104_22-.LJTI104_1
	.long	.LBB104_21-.LJTI104_1
	.long	.LBB104_4-.LJTI104_1
	.section	".gcc_except_table.async_executor::LocalExecutor::spawn::{{closure}}","a",@progbits
	.p2align	2, 0x0
GCC_except_table104:
.Lexception27:
	.byte	255
	.byte	155
	.uleb128 .Lttbase25-.Lttbaseref25
.Lttbaseref25:
	.byte	1
	.uleb128 .Lcst_end27-.Lcst_begin27
.Lcst_begin27:
	.uleb128 .Ltmp472-.Lfunc_begin27
	.uleb128 .Ltmp473-.Ltmp472
	.uleb128 .Ltmp474-.Lfunc_begin27
	.byte	5
	.uleb128 .Ltmp478-.Lfunc_begin27
	.uleb128 .Ltmp479-.Ltmp478
	.uleb128 .Ltmp480-.Lfunc_begin27
	.byte	0
	.uleb128 .Ltmp487-.Lfunc_begin27
	.uleb128 .Ltmp488-.Ltmp487
	.uleb128 .Ltmp489-.Lfunc_begin27
	.byte	0
	.uleb128 .Ltmp469-.Lfunc_begin27
	.uleb128 .Ltmp470-.Ltmp469
	.uleb128 .Ltmp471-.Lfunc_begin27
	.byte	0
	.uleb128 .Ltmp481-.Lfunc_begin27
	.uleb128 .Ltmp482-.Ltmp481
	.uleb128 .Ltmp483-.Lfunc_begin27
	.byte	0
	.uleb128 .Ltmp482-.Lfunc_begin27
	.uleb128 .Ltmp466-.Ltmp482
	.byte	0
	.byte	0
	.uleb128 .Ltmp466-.Lfunc_begin27
	.uleb128 .Ltmp467-.Ltmp466
	.uleb128 .Ltmp468-.Lfunc_begin27
	.byte	0
	.uleb128 .Ltmp467-.Lfunc_begin27
	.uleb128 .Ltmp475-.Ltmp467
	.byte	0
	.byte	0
	.uleb128 .Ltmp475-.Lfunc_begin27
	.uleb128 .Ltmp476-.Ltmp475
	.uleb128 .Ltmp477-.Lfunc_begin27
	.byte	1
	.uleb128 .Ltmp484-.Lfunc_begin27
	.uleb128 .Ltmp485-.Ltmp484
	.uleb128 .Ltmp486-.Lfunc_begin27
	.byte	1
	.uleb128 .Ltmp485-.Lfunc_begin27
	.uleb128 .Lfunc_end104-.Ltmp485
	.byte	0
	.byte	0
.Lcst_end27:
	.byte	127
	.byte	0
	.byte	0
	.byte	0
	.byte	1
	.byte	125
	.p2align	2, 0x0
	.long	0
.Lttbase25:
	.byte	0
	.p2align	2, 0x0

	.section	".text.async_executor::LocalExecutor::spawn::{{closure}}","ax",@progbits
	.p2align	4, 0x90
	.type	async_executor::LocalExecutor::spawn::{{closure}},@function
async_executor::LocalExecutor::spawn::{{closure}}:
.Lfunc_begin28:
	.cfi_startproc
	.cfi_personality 155, DW.ref.rust_eh_personality
	.cfi_lsda 27, .Lexception28
	pushq	%r14
	.cfi_def_cfa_offset 16
	pushq	%rbx
	.cfi_def_cfa_offset 24
	pushq	%rax
	.cfi_def_cfa_offset 32
	.cfi_offset %rbx, -24
	.cfi_offset %r14, -16
	movq	%rdi, %rbx
	movzbl	224(%rdi), %eax
	leaq	.LJTI105_0(%rip), %rcx
	movslq	(%rcx,%rax,4), %rax
	addq	%rcx, %rax
	jmpq	*%rax
.LBB105_1:
	movq	112(%rbx), %rax
	movq	120(%rbx), %rcx
	movq	%rcx, 96(%rbx)
	movq	%rax, 104(%rbx)
	movups	128(%rbx), %xmm0
	movups	%xmm0, (%rbx)
	movups	144(%rbx), %xmm0
	movups	%xmm0, 16(%rbx)
	movups	160(%rbx), %xmm0
	movups	%xmm0, 32(%rbx)
	movups	176(%rbx), %xmm0
	movups	%xmm0, 48(%rbx)
	movups	192(%rbx), %xmm0
	movups	%xmm0, 64(%rbx)
	movups	208(%rbx), %xmm0
	movups	%xmm0, 80(%rbx)
	movzbl	88(%rbx), %eax
	movl	$35, %esi
	leaq	str.3(%rip), %rdi
	leaq	.LJTI105_1(%rip), %rcx
	movslq	(%rcx,%rax,4), %rax
	addq	%rcx, %rax
	jmpq	*%rax
.LBB105_2:
	movzbl	88(%rbx), %eax
	movl	$35, %esi
	leaq	str.3(%rip), %rdi
	leaq	.LJTI105_1(%rip), %rcx
	movslq	(%rcx,%rax,4), %rax
	addq	%rcx, %rax
	jmpq	*%rax
.LBB105_3:
	movq	80(%rbx), %rax
	movq	%rax, 32(%rbx)
	movups	48(%rbx), %xmm0
	movups	64(%rbx), %xmm1
	movups	%xmm1, 16(%rbx)
	movups	%xmm0, (%rbx)
.LBB105_4:
	movzbl	32(%rbx), %eax
	testl	%eax, %eax
	jne	.LBB105_14
	movq	(%rbx), %rax
	movq	8(%rbx), %rcx
	movq	(%rax), %rdi
	movq	8(%rax), %r14
	movq	96(%rcx), %rdx
	movq	80(%r14), %rsi
.Ltmp496:
	callq	bevy_ecs::schedule::executor::__rust_begin_short_backtrace::run_unsafe
.Ltmp497:
	xorl	%eax, %eax
.LBB105_7:
	leaq	8(%rbx), %rdi
	movq	(%rbx), %r8
	movq	24(%rbx), %rsi
.Ltmp502:
	movq	%rax, %rdx
	movq	%r14, %rcx
	callq	bevy_ecs::schedule::executor::multi_threaded::Context::system_completed
.Ltmp503:
	movb	$1, 32(%rbx)
	movq	40(%rbx), %rax
	cmpq	$0, 16(%rax)
	jne	.LBB105_18
	movb	$1, 24(%rax)
	movq	$0, 16(%rax)
	movq	40(%rbx), %rdi
	decq	(%rdi)
	jne	.LBB105_12
	decq	8(%rdi)
	jne	.LBB105_12
	movl	$32, %esi
	movl	$8, %edx
	callq	*__rust_dealloc@GOTPCREL(%rip)
.LBB105_12:
	movb	$1, 88(%rbx)
	leaq	96(%rbx), %rdi
.Ltmp511:
	callq	core::ptr::drop_in_place<async_executor::CallOnDrop<async_executor::LocalExecutor::spawn<(),bevy_tasks::single_threaded_task_pool::Scope<()>::spawn_on_scope<bevy_ecs::schedule::executor::multi_threaded::ExecutorState::spawn_system_task::{{closure}}>::{{closure}}>::{{closure}}::{{closure}}>>
.Ltmp512:
	movb	$1, 224(%rbx)
	addq	$8, %rsp
	.cfi_def_cfa_offset 24
	popq	%rbx
	.cfi_def_cfa_offset 16
	popq	%r14
	.cfi_def_cfa_offset 8
	retq
.LBB105_14:
	.cfi_def_cfa_offset 32
	cmpl	$1, %eax
	jne	.LBB105_16
	leaq	str.3(%rip), %rdi
	jmp	.LBB105_17
.LBB105_16:
	movl	$34, %esi
	leaq	str.4(%rip), %rdi
.LBB105_17:
.Ltmp493:
	leaq	.Lanon.f381d664011984525626c761c6d28b35.458(%rip), %rdx
	callq	*core::panicking::panic@GOTPCREL(%rip)
.Ltmp494:
	jmp	.LBB105_23
.LBB105_18:
.Ltmp505:
	leaq	.Lanon.f381d664011984525626c761c6d28b35.21(%rip), %rdi
	callq	*core::cell::panic_already_borrowed@GOTPCREL(%rip)
.Ltmp506:
	jmp	.LBB105_23
.LBB105_19:
	leaq	str.4(%rip), %rdi
	leaq	.Lanon.f381d664011984525626c761c6d28b35.109(%rip), %rdx
	movl	$34, %esi
	callq	*core::panicking::panic@GOTPCREL(%rip)
.LBB105_20:
	leaq	str.3(%rip), %rdi
	leaq	.Lanon.f381d664011984525626c761c6d28b35.109(%rip), %rdx
	movl	$35, %esi
	callq	*core::panicking::panic@GOTPCREL(%rip)
.LBB105_21:
	movl	$34, %esi
	leaq	str.4(%rip), %rdi
.LBB105_22:
.Ltmp490:
	leaq	.Lanon.f381d664011984525626c761c6d28b35.20(%rip), %rdx
	callq	*core::panicking::panic@GOTPCREL(%rip)
.Ltmp491:
.LBB105_23:
	ud2
.LBB105_24:
.Ltmp513:
	movq	%rax, %r14
	movb	$2, 224(%rbx)
	movq	%r14, %rdi
	callq	_Unwind_Resume@PLT
.LBB105_25:
.Ltmp507:
	jmp	.LBB105_32
.LBB105_26:
.Ltmp504:
	movq	%rax, %r14
	movb	$2, 32(%rbx)
	jmp	.LBB105_33
.LBB105_27:
.Ltmp498:
.Ltmp499:
	movq	%rax, %rdi
	callq	*std::panicking::try::cleanup@GOTPCREL(%rip)
.Ltmp500:
	movq	%rdx, %r14
	jmp	.LBB105_7
.LBB105_29:
.Ltmp501:
	callq	*core::panicking::panic_cannot_unwind@GOTPCREL(%rip)
.LBB105_30:
.Ltmp492:
	movq	%rax, %r14
	jmp	.LBB105_34
.LBB105_31:
.Ltmp495:
.LBB105_32:
	movq	%rax, %r14
.LBB105_33:
	movq	40(%rbx), %rdi
	callq	core::ptr::drop_in_place<alloc::rc::Rc<core::cell::RefCell<core::option::Option<()>>>>
	movb	$2, 88(%rbx)
.LBB105_34:
	movq	%rbx, %rdi
	callq	core::ptr::drop_in_place<bevy_tasks::single_threaded_task_pool::Scope<()>::spawn_on_scope<bevy_ecs::schedule::executor::multi_threaded::ExecutorState::spawn_system_task::{{closure}}>::{{closure}}>
	leaq	96(%rbx), %rdi
.Ltmp508:
	callq	core::ptr::drop_in_place<async_executor::CallOnDrop<async_executor::LocalExecutor::spawn<(),bevy_tasks::single_threaded_task_pool::Scope<()>::spawn_on_scope<bevy_ecs::schedule::executor::multi_threaded::ExecutorState::spawn_system_task::{{closure}}>::{{closure}}>::{{closure}}::{{closure}}>>
.Ltmp509:
	movb	$2, 224(%rbx)
	movq	%r14, %rdi
	callq	_Unwind_Resume@PLT
.LBB105_36:
.Ltmp510:
	callq	*core::panicking::panic_in_cleanup@GOTPCREL(%rip)
.Lfunc_end105:
	.size	async_executor::LocalExecutor::spawn::{{closure}}, .Lfunc_end105-async_executor::LocalExecutor::spawn::{{closure}}
	.cfi_endproc
	.section	".rodata.async_executor::LocalExecutor::spawn::{{closure}}","a",@progbits
	.p2align	2, 0x0
.LJTI105_0:
	.long	.LBB105_1-.LJTI105_0
	.long	.LBB105_20-.LJTI105_0
	.long	.LBB105_19-.LJTI105_0
	.long	.LBB105_2-.LJTI105_0
.LJTI105_1:
	.long	.LBB105_3-.LJTI105_1
	.long	.LBB105_22-.LJTI105_1
	.long	.LBB105_21-.LJTI105_1
	.long	.LBB105_4-.LJTI105_1
	.section	".gcc_except_table.async_executor::LocalExecutor::spawn::{{closure}}","a",@progbits
	.p2align	2, 0x0
GCC_except_table105:
.Lexception28:
	.byte	255
	.byte	155
	.uleb128 .Lttbase26-.Lttbaseref26
.Lttbaseref26:
	.byte	1
	.uleb128 .Lcst_end28-.Lcst_begin28
.Lcst_begin28:
	.uleb128 .Ltmp496-.Lfunc_begin28
	.uleb128 .Ltmp497-.Ltmp496
	.uleb128 .Ltmp498-.Lfunc_begin28
	.byte	5
	.uleb128 .Ltmp502-.Lfunc_begin28
	.uleb128 .Ltmp503-.Ltmp502
	.uleb128 .Ltmp504-.Lfunc_begin28
	.byte	0
	.uleb128 .Ltmp511-.Lfunc_begin28
	.uleb128 .Ltmp512-.Ltmp511
	.uleb128 .Ltmp513-.Lfunc_begin28
	.byte	0
	.uleb128 .Ltmp493-.Lfunc_begin28
	.uleb128 .Ltmp494-.Ltmp493
	.uleb128 .Ltmp495-.Lfunc_begin28
	.byte	0
	.uleb128 .Ltmp505-.Lfunc_begin28
	.uleb128 .Ltmp506-.Ltmp505
	.uleb128 .Ltmp507-.Lfunc_begin28
	.byte	0
	.uleb128 .Ltmp506-.Lfunc_begin28
	.uleb128 .Ltmp490-.Ltmp506
	.byte	0
	.byte	0
	.uleb128 .Ltmp490-.Lfunc_begin28
	.uleb128 .Ltmp491-.Ltmp490
	.uleb128 .Ltmp492-.Lfunc_begin28
	.byte	0
	.uleb128 .Ltmp491-.Lfunc_begin28
	.uleb128 .Ltmp499-.Ltmp491
	.byte	0
	.byte	0
	.uleb128 .Ltmp499-.Lfunc_begin28
	.uleb128 .Ltmp500-.Ltmp499
	.uleb128 .Ltmp501-.Lfunc_begin28
	.byte	1
	.uleb128 .Ltmp508-.Lfunc_begin28
	.uleb128 .Ltmp509-.Ltmp508
	.uleb128 .Ltmp510-.Lfunc_begin28
	.byte	1
	.uleb128 .Ltmp509-.Lfunc_begin28
	.uleb128 .Lfunc_end105-.Ltmp509
	.byte	0
	.byte	0
.Lcst_end28:
	.byte	127
	.byte	0
	.byte	0
	.byte	0
	.byte	1
	.byte	125
	.p2align	2, 0x0
	.long	0
.Lttbase26:
	.byte	0
	.p2align	2, 0x0

	.section	".text.async_executor::LocalExecutor::spawn::{{closure}}","ax",@progbits
	.p2align	4, 0x90
	.type	async_executor::LocalExecutor::spawn::{{closure}},@function
async_executor::LocalExecutor::spawn::{{closure}}:
.Lfunc_begin29:
	.cfi_startproc
	.cfi_personality 155, DW.ref.rust_eh_personality
	.cfi_lsda 27, .Lexception29
	pushq	%r14
	.cfi_def_cfa_offset 16
	pushq	%rbx
	.cfi_def_cfa_offset 24
	pushq	%rax
	.cfi_def_cfa_offset 32
	.cfi_offset %rbx, -24
	.cfi_offset %r14, -16
	movq	%rdi, %rbx
	movzbl	352(%rdi), %eax
	leaq	.LJTI106_0(%rip), %rcx
	movslq	(%rcx,%rax,4), %rax
	addq	%rcx, %rax
	jmpq	*%rax
.LBB106_1:
	movq	176(%rbx), %rax
	movq	184(%rbx), %rcx
	movq	%rcx, 160(%rbx)
	movq	%rax, 168(%rbx)
	leaq	192(%rbx), %rsi
	movl	$160, %edx
	movq	%rbx, %rdi
	callq	*memcpy@GOTPCREL(%rip)
	movzbl	152(%rbx), %eax
	movl	$35, %esi
	leaq	str.3(%rip), %rdi
	leaq	.LJTI106_1(%rip), %rcx
	movslq	(%rcx,%rax,4), %rax
	addq	%rcx, %rax
	jmpq	*%rax
.LBB106_5:
	movzbl	152(%rbx), %eax
	movl	$35, %esi
	leaq	str.3(%rip), %rdi
	leaq	.LJTI106_1(%rip), %rcx
	movslq	(%rcx,%rax,4), %rax
	addq	%rcx, %rax
	jmpq	*%rax
.LBB106_9:
	movq	144(%rbx), %rax
	movq	%rax, 64(%rbx)
	movups	80(%rbx), %xmm0
	movups	96(%rbx), %xmm1
	movups	112(%rbx), %xmm2
	movups	128(%rbx), %xmm3
	movups	%xmm3, 48(%rbx)
	movups	%xmm2, 32(%rbx)
	movups	%xmm1, 16(%rbx)
	movups	%xmm0, (%rbx)
.LBB106_10:
	movzbl	64(%rbx), %eax
	testl	%eax, %eax
	jne	.LBB106_11
	movq	24(%rbx), %rax
	movq	8(%rax), %rdx
	movq	16(%rax), %rcx
	movq	40(%rbx), %r8
	movq	(%rbx), %rdi
	movq	16(%rbx), %rsi
.Ltmp523:
	callq	bevy_ecs::schedule::executor::multi_threaded::apply_deferred
.Ltmp524:
	movq	%rdx, %rcx
	leaq	24(%rbx), %rdi
	movq	48(%rbx), %r8
	movq	56(%rbx), %rsi
.Ltmp526:
	movq	%rax, %rdx
	callq	bevy_ecs::schedule::executor::multi_threaded::Context::system_completed
.Ltmp527:
.Ltmp532:
	movq	%rbx, %rdi
	callq	*<fixedbitset::FixedBitSet as core::ops::drop::Drop>::drop@GOTPCREL(%rip)
.Ltmp533:
	movb	$1, 64(%rbx)
	movq	72(%rbx), %rax
	cmpq	$0, 16(%rax)
	jne	.LBB106_17
	movb	$1, 24(%rax)
	movq	$0, 16(%rax)
	movq	72(%rbx), %rdi
	decq	(%rdi)
	jne	.LBB106_30
	decq	8(%rdi)
	jne	.LBB106_30
	movl	$32, %esi
	movl	$8, %edx
	callq	*__rust_dealloc@GOTPCREL(%rip)
.LBB106_30:
	movb	$1, 152(%rbx)
.Ltmp540:
	movq	%rbx, %rdi
	callq	core::ptr::drop_in_place<bevy_tasks::single_threaded_task_pool::Scope<()>::spawn_on_scope<bevy_ecs::schedule::executor::multi_threaded::ExecutorState::spawn_exclusive_system_task::{{closure}}>::{{closure}}>
.Ltmp541:
	leaq	160(%rbx), %rdi
.Ltmp546:
	callq	core::ptr::drop_in_place<async_executor::CallOnDrop<async_executor::LocalExecutor::spawn<(),bevy_tasks::single_threaded_task_pool::Scope<()>::spawn_on_scope<bevy_ecs::schedule::executor::multi_threaded::ExecutorState::spawn_exclusive_system_task::{{closure}}>::{{closure}}>::{{closure}}::{{closure}}>>
.Ltmp547:
	movb	$1, 352(%rbx)
	addq	$8, %rsp
	.cfi_def_cfa_offset 24
	popq	%rbx
	.cfi_def_cfa_offset 16
	popq	%r14
	.cfi_def_cfa_offset 8
	retq
.LBB106_11:
	.cfi_def_cfa_offset 32
	cmpl	$1, %eax
	jne	.LBB106_23
	leaq	str.3(%rip), %rdi
	jmp	.LBB106_24
.LBB106_23:
	movl	$34, %esi
	leaq	str.4(%rip), %rdi
.LBB106_24:
.Ltmp517:
	leaq	.Lanon.f381d664011984525626c761c6d28b35.460(%rip), %rdx
	callq	*core::panicking::panic@GOTPCREL(%rip)
.Ltmp518:
	jmp	.LBB106_8
.LBB106_17:
.Ltmp535:
	leaq	.Lanon.f381d664011984525626c761c6d28b35.21(%rip), %rdi
	callq	*core::cell::panic_already_borrowed@GOTPCREL(%rip)
.Ltmp536:
	jmp	.LBB106_8
.LBB106_4:
	leaq	str.4(%rip), %rdi
	leaq	.Lanon.f381d664011984525626c761c6d28b35.109(%rip), %rdx
	movl	$34, %esi
	callq	*core::panicking::panic@GOTPCREL(%rip)
.LBB106_3:
	leaq	str.3(%rip), %rdi
	leaq	.Lanon.f381d664011984525626c761c6d28b35.109(%rip), %rdx
	movl	$35, %esi
	callq	*core::panicking::panic@GOTPCREL(%rip)
.LBB106_6:
	movl	$34, %esi
	leaq	str.4(%rip), %rdi
.LBB106_7:
.Ltmp514:
	leaq	.Lanon.f381d664011984525626c761c6d28b35.20(%rip), %rdx
	callq	*core::panicking::panic@GOTPCREL(%rip)
.Ltmp515:
.LBB106_8:
	ud2
.LBB106_39:
.Ltmp548:
	movq	%rax, %r14
	movb	$2, 352(%rbx)
	movq	%r14, %rdi
	callq	_Unwind_Resume@PLT
.LBB106_36:
.Ltmp542:
	movq	%rax, %r14
	jmp	.LBB106_37
.LBB106_34:
.Ltmp537:
	movq	%rax, %r14
	jmp	.LBB106_35
.LBB106_18:
.Ltmp534:
	movq	%rax, %r14
	movb	$2, 64(%rbx)
	jmp	.LBB106_35
.LBB106_42:
.Ltmp528:
	jmp	.LBB106_20
.LBB106_19:
.Ltmp525:
.LBB106_20:
	movq	%rax, %r14
.Ltmp529:
	movq	%rbx, %rdi
	callq	*<fixedbitset::FixedBitSet as core::ops::drop::Drop>::drop@GOTPCREL(%rip)
.Ltmp530:
	movb	$2, 64(%rbx)
	jmp	.LBB106_35
.LBB106_22:
.Ltmp531:
	callq	*core::panicking::panic_in_cleanup@GOTPCREL(%rip)
.LBB106_40:
.Ltmp516:
	movq	%rax, %r14
	jmp	.LBB106_41
.LBB106_25:
.Ltmp519:
	movq	%rax, %r14
	cmpb	$0, 64(%rbx)
	jne	.LBB106_35
.Ltmp520:
	movq	%rbx, %rdi
	callq	*<fixedbitset::FixedBitSet as core::ops::drop::Drop>::drop@GOTPCREL(%rip)
.Ltmp521:
.LBB106_35:
	movq	72(%rbx), %rdi
	callq	core::ptr::drop_in_place<alloc::rc::Rc<core::cell::RefCell<core::option::Option<()>>>>
	movb	$2, 152(%rbx)
.LBB106_41:
.Ltmp538:
	movq	%rbx, %rdi
	callq	core::ptr::drop_in_place<bevy_tasks::single_threaded_task_pool::Scope<()>::spawn_on_scope<bevy_ecs::schedule::executor::multi_threaded::ExecutorState::spawn_exclusive_system_task::{{closure}}>::{{closure}}>
.Ltmp539:
.LBB106_37:
	leaq	160(%rbx), %rdi
.Ltmp543:
	callq	core::ptr::drop_in_place<async_executor::CallOnDrop<async_executor::LocalExecutor::spawn<(),bevy_tasks::single_threaded_task_pool::Scope<()>::spawn_on_scope<bevy_ecs::schedule::executor::multi_threaded::ExecutorState::spawn_exclusive_system_task::{{closure}}>::{{closure}}>::{{closure}}::{{closure}}>>
.Ltmp544:
	movb	$2, 352(%rbx)
	movq	%r14, %rdi
	callq	_Unwind_Resume@PLT
.LBB106_33:
.Ltmp522:
	callq	*core::panicking::panic_in_cleanup@GOTPCREL(%rip)
.LBB106_2:
.Ltmp545:
	callq	*core::panicking::panic_in_cleanup@GOTPCREL(%rip)
.Lfunc_end106:
	.size	async_executor::LocalExecutor::spawn::{{closure}}, .Lfunc_end106-async_executor::LocalExecutor::spawn::{{closure}}
	.cfi_endproc
	.section	".rodata.async_executor::LocalExecutor::spawn::{{closure}}","a",@progbits
	.p2align	2, 0x0
.LJTI106_0:
	.long	.LBB106_1-.LJTI106_0
	.long	.LBB106_3-.LJTI106_0
	.long	.LBB106_4-.LJTI106_0
	.long	.LBB106_5-.LJTI106_0
.LJTI106_1:
	.long	.LBB106_9-.LJTI106_1
	.long	.LBB106_7-.LJTI106_1
	.long	.LBB106_6-.LJTI106_1
	.long	.LBB106_10-.LJTI106_1
	.section	".gcc_except_table.async_executor::LocalExecutor::spawn::{{closure}}","a",@progbits
	.p2align	2, 0x0
GCC_except_table106:
.Lexception29:
	.byte	255
	.byte	155
	.uleb128 .Lttbase27-.Lttbaseref27
.Lttbaseref27:
	.byte	1
	.uleb128 .Lcst_end29-.Lcst_begin29
.Lcst_begin29:
	.uleb128 .Lfunc_begin29-.Lfunc_begin29
	.uleb128 .Ltmp523-.Lfunc_begin29
	.byte	0
	.byte	0
	.uleb128 .Ltmp523-.Lfunc_begin29
	.uleb128 .Ltmp524-.Ltmp523
	.uleb128 .Ltmp525-.Lfunc_begin29
	.byte	0
	.uleb128 .Ltmp526-.Lfunc_begin29
	.uleb128 .Ltmp527-.Ltmp526
	.uleb128 .Ltmp528-.Lfunc_begin29
	.byte	0
	.uleb128 .Ltmp532-.Lfunc_begin29
	.uleb128 .Ltmp533-.Ltmp532
	.uleb128 .Ltmp534-.Lfunc_begin29
	.byte	0
	.uleb128 .Ltmp540-.Lfunc_begin29
	.uleb128 .Ltmp541-.Ltmp540
	.uleb128 .Ltmp542-.Lfunc_begin29
	.byte	0
	.uleb128 .Ltmp546-.Lfunc_begin29
	.uleb128 .Ltmp547-.Ltmp546
	.uleb128 .Ltmp548-.Lfunc_begin29
	.byte	0
	.uleb128 .Ltmp517-.Lfunc_begin29
	.uleb128 .Ltmp518-.Ltmp517
	.uleb128 .Ltmp519-.Lfunc_begin29
	.byte	0
	.uleb128 .Ltmp535-.Lfunc_begin29
	.uleb128 .Ltmp536-.Ltmp535
	.uleb128 .Ltmp537-.Lfunc_begin29
	.byte	0
	.uleb128 .Ltmp536-.Lfunc_begin29
	.uleb128 .Ltmp514-.Ltmp536
	.byte	0
	.byte	0
	.uleb128 .Ltmp514-.Lfunc_begin29
	.uleb128 .Ltmp515-.Ltmp514
	.uleb128 .Ltmp516-.Lfunc_begin29
	.byte	0
	.uleb128 .Ltmp515-.Lfunc_begin29
	.uleb128 .Ltmp529-.Ltmp515
	.byte	0
	.byte	0
	.uleb128 .Ltmp529-.Lfunc_begin29
	.uleb128 .Ltmp530-.Ltmp529
	.uleb128 .Ltmp531-.Lfunc_begin29
	.byte	1
	.uleb128 .Ltmp520-.Lfunc_begin29
	.uleb128 .Ltmp521-.Ltmp520
	.uleb128 .Ltmp522-.Lfunc_begin29
	.byte	1
	.uleb128 .Ltmp538-.Lfunc_begin29
	.uleb128 .Ltmp544-.Ltmp538
	.uleb128 .Ltmp545-.Lfunc_begin29
	.byte	1
	.uleb128 .Ltmp544-.Lfunc_begin29
	.uleb128 .Lfunc_end106-.Ltmp544
	.byte	0
	.byte	0
.Lcst_end29:
	.byte	127
	.byte	0
	.p2align	2, 0x0
.Lttbase27:
	.byte	0
	.p2align	2, 0x0

	.section	".text.<T as core::any::Any>::type_id","ax",@progbits
	.p2align	4, 0x90
	.type	<T as core::any::Any>::type_id,@function
<T as core::any::Any>::type_id:
	.cfi_startproc
	movabsq	$954461096245596397, %rax
	movabsq	$911075250061184150, %rdx
	retq
.Lfunc_end107:
	.size	<T as core::any::Any>::type_id, .Lfunc_end107-<T as core::any::Any>::type_id
	.cfi_endproc

	.section	".text.<T as core::any::Any>::type_id","ax",@progbits
	.p2align	4, 0x90
	.type	<T as core::any::Any>::type_id,@function
<T as core::any::Any>::type_id:
	.cfi_startproc
	movabsq	$-6776178250734964958, %rax
	movabsq	$8795768704728221096, %rdx
	retq
.Lfunc_end108:
	.size	<T as core::any::Any>::type_id, .Lfunc_end108-<T as core::any::Any>::type_id
	.cfi_endproc

	.section	".text.<T as core::any::Any>::type_id","ax",@progbits
	.p2align	4, 0x90
	.type	<T as core::any::Any>::type_id,@function
<T as core::any::Any>::type_id:
	.cfi_startproc
	movabsq	$-906751569395743941, %rax
	movabsq	$-1259648926463959195, %rdx
	retq
.Lfunc_end109:
	.size	<T as core::any::Any>::type_id, .Lfunc_end109-<T as core::any::Any>::type_id
	.cfi_endproc

	.section	".text.<T as core::any::Any>::type_id","ax",@progbits
	.p2align	4, 0x90
	.type	<T as core::any::Any>::type_id,@function
<T as core::any::Any>::type_id:
	.cfi_startproc
	movabsq	$4518903163082958039, %rax
	movabsq	$1403077013027291752, %rdx
	retq
.Lfunc_end110:
	.size	<T as core::any::Any>::type_id, .Lfunc_end110-<T as core::any::Any>::type_id
	.cfi_endproc

	.section	".text.<T as core::any::Any>::type_id","ax",@progbits
	.p2align	4, 0x90
	.type	<T as core::any::Any>::type_id,@function
<T as core::any::Any>::type_id:
	.cfi_startproc
	movabsq	$-7022287072142273161, %rax
	movabsq	$-2604226998799904896, %rdx
	retq
.Lfunc_end111:
	.size	<T as core::any::Any>::type_id, .Lfunc_end111-<T as core::any::Any>::type_id
	.cfi_endproc

	.section	".text.<T as core::any::Any>::type_id","ax",@progbits
	.p2align	4, 0x90
	.type	<T as core::any::Any>::type_id,@function
<T as core::any::Any>::type_id:
	.cfi_startproc
	movabsq	$6115388124413722526, %rax
	movabsq	$272173855381906022, %rdx
	retq
.Lfunc_end112:
	.size	<T as core::any::Any>::type_id, .Lfunc_end112-<T as core::any::Any>::type_id
	.cfi_endproc

	.section	".text.<T as core::any::Any>::type_id","ax",@progbits
	.p2align	4, 0x90
	.type	<T as core::any::Any>::type_id,@function
<T as core::any::Any>::type_id:
	.cfi_startproc
	movabsq	$-7689738493790278073, %rax
	movabsq	$-2986141526139477041, %rdx
	retq
.Lfunc_end113:
	.size	<T as core::any::Any>::type_id, .Lfunc_end113-<T as core::any::Any>::type_id
	.cfi_endproc

	.section	".text.<T as core::any::Any>::type_id","ax",@progbits
	.p2align	4, 0x90
	.type	<T as core::any::Any>::type_id,@function
<T as core::any::Any>::type_id:
	.cfi_startproc
	movabsq	$5675505804111296054, %rax
	movabsq	$336799929167591734, %rdx
	retq
.Lfunc_end114:
	.size	<T as core::any::Any>::type_id, .Lfunc_end114-<T as core::any::Any>::type_id
	.cfi_endproc

	.section	".text.<T as core::any::Any>::type_id","ax",@progbits
	.p2align	4, 0x90
	.type	<T as core::any::Any>::type_id,@function
<T as core::any::Any>::type_id:
	.cfi_startproc
	movabsq	$-7923924532561682234, %rax
	movabsq	$8519994227001858441, %rdx
	retq
.Lfunc_end115:
	.size	<T as core::any::Any>::type_id, .Lfunc_end115-<T as core::any::Any>::type_id
	.cfi_endproc

	.section	".text.<T as core::any::Any>::type_id","ax",@progbits
	.p2align	4, 0x90
	.type	<T as core::any::Any>::type_id,@function
<T as core::any::Any>::type_id:
	.cfi_startproc
	movabsq	$-239194220288350939, %rax
	movabsq	$4320238057830930015, %rdx
	retq
.Lfunc_end116:
	.size	<T as core::any::Any>::type_id, .Lfunc_end116-<T as core::any::Any>::type_id
	.cfi_endproc

	.section	".text.<T as core::any::Any>::type_id","ax",@progbits
	.p2align	4, 0x90
	.type	<T as core::any::Any>::type_id,@function
<T as core::any::Any>::type_id:
	.cfi_startproc
	movabsq	$-6376088438099296051, %rax
	movabsq	$-8429756278820354493, %rdx
	retq
.Lfunc_end117:
	.size	<T as core::any::Any>::type_id, .Lfunc_end117-<T as core::any::Any>::type_id
	.cfi_endproc

	.section	".text.<T as core::any::Any>::type_id","ax",@progbits
	.p2align	4, 0x90
	.type	<T as core::any::Any>::type_id,@function
<T as core::any::Any>::type_id:
	.cfi_startproc
	movabsq	$-6862597384769493118, %rax
	movabsq	$-6242284697208490501, %rdx
	retq
.Lfunc_end118:
	.size	<T as core::any::Any>::type_id, .Lfunc_end118-<T as core::any::Any>::type_id
	.cfi_endproc

	.section	".text.<T as core::any::Any>::type_id","ax",@progbits
	.p2align	4, 0x90
	.type	<T as core::any::Any>::type_id,@function
<T as core::any::Any>::type_id:
	.cfi_startproc
	movabsq	$-5701614869341716137, %rax
	movabsq	$5504722631080960956, %rdx
	retq
.Lfunc_end119:
	.size	<T as core::any::Any>::type_id, .Lfunc_end119-<T as core::any::Any>::type_id
	.cfi_endproc

	.section	".text.<T as core::any::Any>::type_id","ax",@progbits
	.p2align	4, 0x90
	.type	<T as core::any::Any>::type_id,@function
<T as core::any::Any>::type_id:
	.cfi_startproc
	movabsq	$-490150967492282159, %rax
	movabsq	$-7596598376638904423, %rdx
	retq
.Lfunc_end120:
	.size	<T as core::any::Any>::type_id, .Lfunc_end120-<T as core::any::Any>::type_id
	.cfi_endproc

	.section	".text.<T as core::any::Any>::type_id","ax",@progbits
	.p2align	4, 0x90
	.type	<T as core::any::Any>::type_id,@function
<T as core::any::Any>::type_id:
	.cfi_startproc
	movabsq	$-758055427766315107, %rax
	movabsq	$3327637847063585624, %rdx
	retq
.Lfunc_end121:
	.size	<T as core::any::Any>::type_id, .Lfunc_end121-<T as core::any::Any>::type_id
	.cfi_endproc

	.section	".text.<T as core::any::Any>::type_id","ax",@progbits
	.p2align	4, 0x90
	.type	<T as core::any::Any>::type_id,@function
<T as core::any::Any>::type_id:
	.cfi_startproc
	movabsq	$-9114487878057723459, %rax
	movabsq	$-3280778435104229682, %rdx
	retq
.Lfunc_end122:
	.size	<T as core::any::Any>::type_id, .Lfunc_end122-<T as core::any::Any>::type_id
	.cfi_endproc

	.section	".text.<T as core::any::Any>::type_id","ax",@progbits
	.p2align	4, 0x90
	.type	<T as core::any::Any>::type_id,@function
<T as core::any::Any>::type_id:
	.cfi_startproc
	movabsq	$4737116851218926202, %rax
	movabsq	$5243854497488010324, %rdx
	retq
.Lfunc_end123:
	.size	<T as core::any::Any>::type_id, .Lfunc_end123-<T as core::any::Any>::type_id
	.cfi_endproc

	.section	.text.unlikely.std::sys_common::once::futex::Once::call,"ax",@progbits
	.p2align	4, 0x90
	.type	std::sys_common::once::futex::Once::call,@function
std::sys_common::once::futex::Once::call:
.Lfunc_begin30:
	.cfi_startproc
	.cfi_personality 155, DW.ref.rust_eh_personality
	.cfi_lsda 27, .Lexception30
	pushq	%rbp
	.cfi_def_cfa_offset 16
	pushq	%r15
	.cfi_def_cfa_offset 24
	pushq	%r14
	.cfi_def_cfa_offset 32
	pushq	%r13
	.cfi_def_cfa_offset 40
	pushq	%r12
	.cfi_def_cfa_offset 48
	pushq	%rbx
	.cfi_def_cfa_offset 56
	subq	$56, %rsp
	.cfi_def_cfa_offset 112
	.cfi_offset %rbx, -56
	.cfi_offset %r12, -48
	.cfi_offset %r13, -40
	.cfi_offset %r14, -32
	.cfi_offset %r15, -24
	.cfi_offset %rbp, -16
	movq	%rdi, %rbx
	movl	bevy_ecs::component::_::<impl bevy_reflect::type_info::Typed for bevy_ecs::component::ComponentId>::type_info::CELL+200(%rip), %eax
	leaq	.LJTI124_0(%rip), %r15
	movl	$2, %ebp
	movl	$3, %r12d
	leaq	bevy_ecs::component::_::<impl bevy_reflect::type_info::Typed for bevy_ecs::component::ComponentId>::type_info::CELL+200(%rip), %r14
	movq	std::sys::unix::futex::futex_wait@GOTPCREL(%rip), %r13
	jmp	.LBB124_1
	.p2align	4, 0x90
.LBB124_16:
	movq	%r14, %rdi
	movl	$3, %esi
	movl	$1000000000, %ecx
	callq	*%r13
	movl	bevy_ecs::component::_::<impl bevy_reflect::type_info::Typed for bevy_ecs::component::ComponentId>::type_info::CELL+200(%rip), %eax
.LBB124_1:
	cmpl	$4, %eax
	ja	.LBB124_3
	movl	%eax, %ecx
	movslq	(%r15,%rcx,4), %rcx
	addq	%r15, %rcx
	jmpq	*%rcx
.LBB124_4:
	lock		cmpxchgl	%ebp, bevy_ecs::component::_::<impl bevy_reflect::type_info::Typed for bevy_ecs::component::ComponentId>::type_info::CELL+200(%rip)
	jne	.LBB124_1
	jmp	.LBB124_5
	.p2align	4, 0x90
.LBB124_15:
	movl	$2, %eax
	lock		cmpxchgl	%r12d, bevy_ecs::component::_::<impl bevy_reflect::type_info::Typed for bevy_ecs::component::ComponentId>::type_info::CELL+200(%rip)
	jne	.LBB124_1
	jmp	.LBB124_16
.LBB124_5:
	movq	%r14, 8(%rsp)
	movl	$1, 16(%rsp)
	movq	(%rbx), %rax
	movq	(%rax), %rbx
	movq	$0, (%rax)
	testq	%rbx, %rbx
	je	.LBB124_6
	movq	__rust_no_alloc_shim_is_unstable@GOTPCREL(%rip), %rax
	movzbl	(%rax), %eax
	movl	$72, %edi
	movl	$8, %esi
	callq	*__rust_alloc@GOTPCREL(%rip)
	testq	%rax, %rax
	je	.LBB124_9
	leaq	.Lanon.f381d664011984525626c761c6d28b35.94(%rip), %rcx
	movq	%rcx, (%rax)
	movq	$5, 8(%rax)
	leaq	bevy_reflect::impls::std::_::<impl bevy_reflect::type_path::TypePath for usize>::short_type_path(%rip), %rcx
	movq	%rcx, 16(%rax)
	leaq	bevy_reflect::impls::std::_::<impl bevy_reflect::type_path::TypePath for usize>::type_ident(%rip), %rcx
	movq	%rcx, 24(%rax)
	leaq	bevy_reflect::impls::std::_::<impl bevy_reflect::type_path::TypePath for usize>::crate_name(%rip), %rcx
	movq	%rcx, 32(%rax)
	leaq	bevy_reflect::impls::std::_::<impl bevy_reflect::type_path::TypePath for usize>::module_path(%rip), %rcx
	movq	%rcx, 40(%rax)
	movq	$0, 48(%rax)
	movabsq	$8519994227001858441, %rcx
	movq	%rcx, 64(%rax)
	movabsq	$-7923924532561682234, %rcx
	movq	%rcx, 56(%rax)
	movq	$1, (%rbx)
	leaq	.Lanon.f381d664011984525626c761c6d28b35.786(%rip), %rcx
	movq	%rcx, 8(%rbx)
	movq	$32, 16(%rbx)
	leaq	bevy_ecs::component::_::<impl bevy_reflect::type_path::TypePath for bevy_ecs::component::ComponentId>::short_type_path(%rip), %rcx
	movq	%rcx, 24(%rbx)
	leaq	bevy_ecs::component::_::<impl bevy_reflect::type_path::TypePath for bevy_ecs::component::ComponentId>::type_ident(%rip), %rcx
	movq	%rcx, 32(%rbx)
	movq	bevy_ecs::component::_::<impl bevy_reflect::type_path::TypePath for bevy_ecs::component::ComponentId>::crate_name@GOTPCREL(%rip), %rcx
	movq	%rcx, 40(%rbx)
	leaq	bevy_ecs::component::_::<impl bevy_reflect::type_path::TypePath for bevy_ecs::component::ComponentId>::module_path(%rip), %rcx
	movq	%rcx, 48(%rbx)
	movq	%rax, 56(%rbx)
	movq	$1, 64(%rbx)
	movabsq	$6115388124413722526, %rax
	movq	%rax, 72(%rbx)
	movabsq	$272173855381906022, %rax
	movq	%rax, 80(%rbx)
	movl	$4, 16(%rsp)
	leaq	8(%rsp), %rdi
	callq	*<std::sys_common::once::futex::CompletionGuard as core::ops::drop::Drop>::drop@GOTPCREL(%rip)
.LBB124_11:
	addq	$56, %rsp
	.cfi_def_cfa_offset 56
	popq	%rbx
	.cfi_def_cfa_offset 48
	popq	%r12
	.cfi_def_cfa_offset 40
	popq	%r13
	.cfi_def_cfa_offset 32
	popq	%r14
	.cfi_def_cfa_offset 24
	popq	%r15
	.cfi_def_cfa_offset 16
	popq	%rbp
	.cfi_def_cfa_offset 8
	retq
.LBB124_3:
	.cfi_def_cfa_offset 112
	leaq	.Lanon.f381d664011984525626c761c6d28b35.119(%rip), %rax
	movq	%rax, 8(%rsp)
	movq	$1, 16(%rsp)
	movq	%rsp, %rax
	movq	%rax, 24(%rsp)
	xorps	%xmm0, %xmm0
	movups	%xmm0, 32(%rsp)
	leaq	.Lanon.f381d664011984525626c761c6d28b35.121(%rip), %rsi
	leaq	8(%rsp), %rdi
	callq	*core::panicking::panic_fmt@GOTPCREL(%rip)
.LBB124_6:
.Ltmp551:
	leaq	.Lanon.f381d664011984525626c761c6d28b35.7(%rip), %rdi
	leaq	.Lanon.f381d664011984525626c761c6d28b35.122(%rip), %rdx
	movl	$43, %esi
	callq	*core::panicking::panic@GOTPCREL(%rip)
.Ltmp552:
	jmp	.LBB124_7
.LBB124_9:
.Ltmp549:
	movl	$8, %edi
	movl	$72, %esi
	callq	*alloc::alloc::handle_alloc_error@GOTPCREL(%rip)
.Ltmp550:
.LBB124_7:
	ud2
.LBB124_13:
.Ltmp553:
	movq	%rax, %rbx
.Ltmp554:
	leaq	8(%rsp), %rdi
	callq	*<std::sys_common::once::futex::CompletionGuard as core::ops::drop::Drop>::drop@GOTPCREL(%rip)
.Ltmp555:
	movq	%rbx, %rdi
	callq	_Unwind_Resume@PLT
.LBB124_12:
.Ltmp556:
	callq	*core::panicking::panic_in_cleanup@GOTPCREL(%rip)
.Lfunc_end124:
	.size	std::sys_common::once::futex::Once::call, .Lfunc_end124-std::sys_common::once::futex::Once::call
	.cfi_endproc
	.section	.rodata.unlikely.std::sys_common::once::futex::Once::call,"a",@progbits
	.p2align	2, 0x0
.LJTI124_0:
	.long	.LBB124_4-.LJTI124_0
	.long	.LBB124_4-.LJTI124_0
	.long	.LBB124_15-.LJTI124_0
	.long	.LBB124_16-.LJTI124_0
	.long	.LBB124_11-.LJTI124_0
	.section	.gcc_except_table.std::sys_common::once::futex::Once::call,"a",@progbits
	.p2align	2, 0x0
GCC_except_table124:
.Lexception30:
	.byte	255
	.byte	155
	.uleb128 .Lttbase28-.Lttbaseref28
.Lttbaseref28:
	.byte	1
	.uleb128 .Lcst_end30-.Lcst_begin30
.Lcst_begin30:
	.uleb128 .Lfunc_begin30-.Lfunc_begin30
	.uleb128 .Ltmp551-.Lfunc_begin30
	.byte	0
	.byte	0
	.uleb128 .Ltmp551-.Lfunc_begin30
	.uleb128 .Ltmp550-.Ltmp551
	.uleb128 .Ltmp553-.Lfunc_begin30
	.byte	0
	.uleb128 .Ltmp554-.Lfunc_begin30
	.uleb128 .Ltmp555-.Ltmp554
	.uleb128 .Ltmp556-.Lfunc_begin30
	.byte	1
	.uleb128 .Ltmp555-.Lfunc_begin30
	.uleb128 .Lfunc_end124-.Ltmp555
	.byte	0
	.byte	0
.Lcst_end30:
	.byte	127
	.byte	0
	.p2align	2, 0x0
.Lttbase28:
	.byte	0
	.p2align	2, 0x0

	.section	.text.unlikely.std::sys_common::once::futex::Once::call,"ax",@progbits
	.p2align	4, 0x90
	.type	std::sys_common::once::futex::Once::call,@function
std::sys_common::once::futex::Once::call:
.Lfunc_begin31:
	.cfi_startproc
	.cfi_personality 155, DW.ref.rust_eh_personality
	.cfi_lsda 27, .Lexception31
	pushq	%rbp
	.cfi_def_cfa_offset 16
	pushq	%r15
	.cfi_def_cfa_offset 24
	pushq	%r14
	.cfi_def_cfa_offset 32
	pushq	%r13
	.cfi_def_cfa_offset 40
	pushq	%r12
	.cfi_def_cfa_offset 48
	pushq	%rbx
	.cfi_def_cfa_offset 56
	subq	$56, %rsp
	.cfi_def_cfa_offset 112
	.cfi_offset %rbx, -56
	.cfi_offset %r12, -48
	.cfi_offset %r13, -40
	.cfi_offset %r14, -32
	.cfi_offset %r15, -24
	.cfi_offset %rbp, -16
	movq	%rdi, %rbx
	movl	bevy_ecs::entity::hash::_::<impl bevy_reflect::type_info::Typed for bevy_ecs::entity::hash::EntityHash>::type_info::CELL+200(%rip), %eax
	leaq	.LJTI125_0(%rip), %r15
	movl	$2, %ebp
	movl	$3, %r12d
	leaq	bevy_ecs::entity::hash::_::<impl bevy_reflect::type_info::Typed for bevy_ecs::entity::hash::EntityHash>::type_info::CELL+200(%rip), %r14
	movq	std::sys::unix::futex::futex_wait@GOTPCREL(%rip), %r13
	jmp	.LBB125_1
	.p2align	4, 0x90
.LBB125_14:
	movq	%r14, %rdi
	movl	$3, %esi
	movl	$1000000000, %ecx
	callq	*%r13
	movl	bevy_ecs::entity::hash::_::<impl bevy_reflect::type_info::Typed for bevy_ecs::entity::hash::EntityHash>::type_info::CELL+200(%rip), %eax
.LBB125_1:
	cmpl	$4, %eax
	ja	.LBB125_3
	movl	%eax, %ecx
	movslq	(%r15,%rcx,4), %rcx
	addq	%r15, %rcx
	jmpq	*%rcx
.LBB125_4:
	lock		cmpxchgl	%ebp, bevy_ecs::entity::hash::_::<impl bevy_reflect::type_info::Typed for bevy_ecs::entity::hash::EntityHash>::type_info::CELL+200(%rip)
	jne	.LBB125_1
	jmp	.LBB125_5
	.p2align	4, 0x90
.LBB125_13:
	movl	$2, %eax
	lock		cmpxchgl	%r12d, bevy_ecs::entity::hash::_::<impl bevy_reflect::type_info::Typed for bevy_ecs::entity::hash::EntityHash>::type_info::CELL+200(%rip)
	jne	.LBB125_1
	jmp	.LBB125_14
.LBB125_5:
	movq	%r14, 8(%rsp)
	movl	$1, 16(%rsp)
	movq	(%rbx), %rcx
	movq	(%rcx), %rax
	movq	$0, (%rcx)
	testq	%rax, %rax
	je	.LBB125_6
	movq	$0, (%rax)
	leaq	.Lanon.f381d664011984525626c761c6d28b35.807(%rip), %rcx
	movq	%rcx, 8(%rax)
	movq	$34, 16(%rax)
	leaq	bevy_ecs::entity::hash::_::<impl bevy_reflect::type_path::TypePath for bevy_ecs::entity::hash::EntityHash>::short_type_path(%rip), %rcx
	movq	%rcx, 24(%rax)
	leaq	bevy_ecs::entity::hash::_::<impl bevy_reflect::type_path::TypePath for bevy_ecs::entity::hash::EntityHash>::type_ident(%rip), %rcx
	movq	%rcx, 32(%rax)
	movq	bevy_ecs::entity::hash::_::<impl bevy_reflect::type_path::TypePath for bevy_ecs::entity::hash::EntityHash>::crate_name@GOTPCREL(%rip), %rcx
	movq	%rcx, 40(%rax)
	leaq	bevy_ecs::entity::hash::_::<impl bevy_reflect::type_path::TypePath for bevy_ecs::entity::hash::EntityHash>::module_path(%rip), %rcx
	movq	%rcx, 48(%rax)
	movq	$8, 56(%rax)
	movq	$0, 64(%rax)
	movq	$8, 72(%rax)
	movq	$0, 80(%rax)
	leaq	.Lanon.f381d664011984525626c761c6d28b35.247(%rip), %rcx
	movq	%rcx, 88(%rax)
	movq	$0, 96(%rax)
	movups	.Lanon.f381d664011984525626c761c6d28b35.248+16(%rip), %xmm0
	movups	%xmm0, 104(%rax)
	movabsq	$3327637847063585624, %rcx
	movq	%rcx, 128(%rax)
	movabsq	$-758055427766315107, %rcx
	movq	%rcx, 120(%rax)
	movl	$4, 16(%rsp)
	leaq	8(%rsp), %rdi
	callq	*<std::sys_common::once::futex::CompletionGuard as core::ops::drop::Drop>::drop@GOTPCREL(%rip)
.LBB125_9:
	addq	$56, %rsp
	.cfi_def_cfa_offset 56
	popq	%rbx
	.cfi_def_cfa_offset 48
	popq	%r12
	.cfi_def_cfa_offset 40
	popq	%r13
	.cfi_def_cfa_offset 32
	popq	%r14
	.cfi_def_cfa_offset 24
	popq	%r15
	.cfi_def_cfa_offset 16
	popq	%rbp
	.cfi_def_cfa_offset 8
	retq
.LBB125_3:
	.cfi_def_cfa_offset 112
	leaq	.Lanon.f381d664011984525626c761c6d28b35.119(%rip), %rax
	movq	%rax, 8(%rsp)
	movq	$1, 16(%rsp)
	movq	%rsp, %rax
	movq	%rax, 24(%rsp)
	xorps	%xmm0, %xmm0
	movups	%xmm0, 32(%rsp)
	leaq	.Lanon.f381d664011984525626c761c6d28b35.121(%rip), %rsi
	leaq	8(%rsp), %rdi
	callq	*core::panicking::panic_fmt@GOTPCREL(%rip)
.LBB125_6:
.Ltmp557:
	leaq	.Lanon.f381d664011984525626c761c6d28b35.7(%rip), %rdi
	leaq	.Lanon.f381d664011984525626c761c6d28b35.122(%rip), %rdx
	movl	$43, %esi
	callq	*core::panicking::panic@GOTPCREL(%rip)
.Ltmp558:
	ud2
.LBB125_11:
.Ltmp559:
	movq	%rax, %rbx
.Ltmp560:
	leaq	8(%rsp), %rdi
	callq	*<std::sys_common::once::futex::CompletionGuard as core::ops::drop::Drop>::drop@GOTPCREL(%rip)
.Ltmp561:
	movq	%rbx, %rdi
	callq	_Unwind_Resume@PLT
.LBB125_10:
.Ltmp562:
	callq	*core::panicking::panic_in_cleanup@GOTPCREL(%rip)
.Lfunc_end125:
	.size	std::sys_common::once::futex::Once::call, .Lfunc_end125-std::sys_common::once::futex::Once::call
	.cfi_endproc
	.section	.rodata.unlikely.std::sys_common::once::futex::Once::call,"a",@progbits
	.p2align	2, 0x0
.LJTI125_0:
	.long	.LBB125_4-.LJTI125_0
	.long	.LBB125_4-.LJTI125_0
	.long	.LBB125_13-.LJTI125_0
	.long	.LBB125_14-.LJTI125_0
	.long	.LBB125_9-.LJTI125_0
	.section	.gcc_except_table.std::sys_common::once::futex::Once::call,"a",@progbits
	.p2align	2, 0x0
GCC_except_table125:
.Lexception31:
	.byte	255
	.byte	155
	.uleb128 .Lttbase29-.Lttbaseref29
.Lttbaseref29:
	.byte	1
	.uleb128 .Lcst_end31-.Lcst_begin31
.Lcst_begin31:
	.uleb128 .Lfunc_begin31-.Lfunc_begin31
	.uleb128 .Ltmp557-.Lfunc_begin31
	.byte	0
	.byte	0
	.uleb128 .Ltmp557-.Lfunc_begin31
	.uleb128 .Ltmp558-.Ltmp557
	.uleb128 .Ltmp559-.Lfunc_begin31
	.byte	0
	.uleb128 .Ltmp560-.Lfunc_begin31
	.uleb128 .Ltmp561-.Ltmp560
	.uleb128 .Ltmp562-.Lfunc_begin31
	.byte	1
	.uleb128 .Ltmp561-.Lfunc_begin31
	.uleb128 .Lfunc_end125-.Ltmp561
	.byte	0
	.byte	0
.Lcst_end31:
	.byte	127
	.byte	0
	.p2align	2, 0x0
.Lttbase29:
	.byte	0
	.p2align	2, 0x0

	.section	.text.unlikely.std::sys_common::once::futex::Once::call,"ax",@progbits
	.p2align	4, 0x90
	.type	std::sys_common::once::futex::Once::call,@function
std::sys_common::once::futex::Once::call:
.Lfunc_begin32:
	.cfi_startproc
	.cfi_personality 155, DW.ref.rust_eh_personality
	.cfi_lsda 27, .Lexception32
	pushq	%rbp
	.cfi_def_cfa_offset 16
	pushq	%r15
	.cfi_def_cfa_offset 24
	pushq	%r14
	.cfi_def_cfa_offset 32
	pushq	%r13
	.cfi_def_cfa_offset 40
	pushq	%r12
	.cfi_def_cfa_offset 48
	pushq	%rbx
	.cfi_def_cfa_offset 56
	subq	$56, %rsp
	.cfi_def_cfa_offset 112
	.cfi_offset %rbx, -56
	.cfi_offset %r12, -48
	.cfi_offset %r13, -40
	.cfi_offset %r14, -32
	.cfi_offset %r15, -24
	.cfi_offset %rbp, -16
	movq	%rdi, %rbx
	movq	bevy_tasks::usages::COMPUTE_TASK_POOL@GOTPCREL(%rip), %r14
	movl	(%r14), %eax
	leaq	.LJTI126_0(%rip), %r15
	movl	$2, %ebp
	movl	$3, %r12d
	movq	std::sys::unix::futex::futex_wait@GOTPCREL(%rip), %r13
	jmp	.LBB126_1
	.p2align	4, 0x90
.LBB126_14:
	movq	%r14, %rdi
	movl	$3, %esi
	movl	$1000000000, %ecx
	callq	*%r13
	movl	(%r14), %eax
.LBB126_1:
	cmpl	$4, %eax
	ja	.LBB126_3
	movl	%eax, %ecx
	movslq	(%r15,%rcx,4), %rcx
	addq	%r15, %rcx
	jmpq	*%rcx
.LBB126_4:
	lock		cmpxchgl	%ebp, (%r14)
	jne	.LBB126_1
	jmp	.LBB126_5
	.p2align	4, 0x90
.LBB126_13:
	movl	$2, %eax
	lock		cmpxchgl	%r12d, (%r14)
	jne	.LBB126_1
	jmp	.LBB126_14
.LBB126_5:
	movq	%r14, 8(%rsp)
	movl	$1, 16(%rsp)
	movq	(%rbx), %rax
	cmpq	$0, (%rax)
	movq	$0, (%rax)
	je	.LBB126_6
	movl	$4, 16(%rsp)
	leaq	8(%rsp), %rdi
	callq	*<std::sys_common::once::futex::CompletionGuard as core::ops::drop::Drop>::drop@GOTPCREL(%rip)
.LBB126_9:
	addq	$56, %rsp
	.cfi_def_cfa_offset 56
	popq	%rbx
	.cfi_def_cfa_offset 48
	popq	%r12
	.cfi_def_cfa_offset 40
	popq	%r13
	.cfi_def_cfa_offset 32
	popq	%r14
	.cfi_def_cfa_offset 24
	popq	%r15
	.cfi_def_cfa_offset 16
	popq	%rbp
	.cfi_def_cfa_offset 8
	retq
.LBB126_3:
	.cfi_def_cfa_offset 112
	leaq	.Lanon.f381d664011984525626c761c6d28b35.119(%rip), %rax
	movq	%rax, 8(%rsp)
	movq	$1, 16(%rsp)
	movq	%rsp, %rax
	movq	%rax, 24(%rsp)
	xorps	%xmm0, %xmm0
	movups	%xmm0, 32(%rsp)
	leaq	.Lanon.f381d664011984525626c761c6d28b35.121(%rip), %rsi
	leaq	8(%rsp), %rdi
	callq	*core::panicking::panic_fmt@GOTPCREL(%rip)
.LBB126_6:
.Ltmp563:
	leaq	.Lanon.f381d664011984525626c761c6d28b35.7(%rip), %rdi
	leaq	.Lanon.f381d664011984525626c761c6d28b35.122(%rip), %rdx
	movl	$43, %esi
	callq	*core::panicking::panic@GOTPCREL(%rip)
.Ltmp564:
	ud2
.LBB126_11:
.Ltmp565:
	movq	%rax, %rbx
.Ltmp566:
	leaq	8(%rsp), %rdi
	callq	*<std::sys_common::once::futex::CompletionGuard as core::ops::drop::Drop>::drop@GOTPCREL(%rip)
.Ltmp567:
	movq	%rbx, %rdi
	callq	_Unwind_Resume@PLT
.LBB126_10:
.Ltmp568:
	callq	*core::panicking::panic_in_cleanup@GOTPCREL(%rip)
.Lfunc_end126:
	.size	std::sys_common::once::futex::Once::call, .Lfunc_end126-std::sys_common::once::futex::Once::call
	.cfi_endproc
	.section	.rodata.unlikely.std::sys_common::once::futex::Once::call,"a",@progbits
	.p2align	2, 0x0
.LJTI126_0:
	.long	.LBB126_4-.LJTI126_0
	.long	.LBB126_4-.LJTI126_0
	.long	.LBB126_13-.LJTI126_0
	.long	.LBB126_14-.LJTI126_0
	.long	.LBB126_9-.LJTI126_0
	.section	.gcc_except_table.std::sys_common::once::futex::Once::call,"a",@progbits
	.p2align	2, 0x0
GCC_except_table126:
.Lexception32:
	.byte	255
	.byte	155
	.uleb128 .Lttbase30-.Lttbaseref30
.Lttbaseref30:
	.byte	1
	.uleb128 .Lcst_end32-.Lcst_begin32
.Lcst_begin32:
	.uleb128 .Lfunc_begin32-.Lfunc_begin32
	.uleb128 .Ltmp563-.Lfunc_begin32
	.byte	0
	.byte	0
	.uleb128 .Ltmp563-.Lfunc_begin32
	.uleb128 .Ltmp564-.Ltmp563
	.uleb128 .Ltmp565-.Lfunc_begin32
	.byte	0
	.uleb128 .Ltmp566-.Lfunc_begin32
	.uleb128 .Ltmp567-.Ltmp566
	.uleb128 .Ltmp568-.Lfunc_begin32
	.byte	1
	.uleb128 .Ltmp567-.Lfunc_begin32
	.uleb128 .Lfunc_end126-.Ltmp567
	.byte	0
	.byte	0
.Lcst_end32:
	.byte	127
	.byte	0
	.p2align	2, 0x0
.Lttbase30:
	.byte	0
	.p2align	2, 0x0

	.section	.text.unlikely.std::sys_common::once::futex::Once::call,"ax",@progbits
	.p2align	4, 0x90
	.type	std::sys_common::once::futex::Once::call,@function
std::sys_common::once::futex::Once::call:
.Lfunc_begin33:
	.cfi_startproc
	.cfi_personality 155, DW.ref.rust_eh_personality
	.cfi_lsda 27, .Lexception33
	pushq	%rbp
	.cfi_def_cfa_offset 16
	pushq	%r15
	.cfi_def_cfa_offset 24
	pushq	%r14
	.cfi_def_cfa_offset 32
	pushq	%r13
	.cfi_def_cfa_offset 40
	pushq	%r12
	.cfi_def_cfa_offset 48
	pushq	%rbx
	.cfi_def_cfa_offset 56
	subq	$56, %rsp
	.cfi_def_cfa_offset 112
	.cfi_offset %rbx, -56
	.cfi_offset %r12, -48
	.cfi_offset %r13, -40
	.cfi_offset %r14, -32
	.cfi_offset %r15, -24
	.cfi_offset %rbp, -16
	movq	%rdi, %rbx
	movl	bevy_ecs::entity::_::<impl bevy_reflect::type_info::Typed for bevy_ecs::entity::Entity>::type_info::CELL+200(%rip), %eax
	leaq	.LJTI127_0(%rip), %r15
	movl	$2, %ebp
	movl	$3, %r12d
	leaq	bevy_ecs::entity::_::<impl bevy_reflect::type_info::Typed for bevy_ecs::entity::Entity>::type_info::CELL+200(%rip), %r14
	movq	std::sys::unix::futex::futex_wait@GOTPCREL(%rip), %r13
	jmp	.LBB127_1
	.p2align	4, 0x90
.LBB127_14:
	movq	%r14, %rdi
	movl	$3, %esi
	movl	$1000000000, %ecx
	callq	*%r13
	movl	bevy_ecs::entity::_::<impl bevy_reflect::type_info::Typed for bevy_ecs::entity::Entity>::type_info::CELL+200(%rip), %eax
.LBB127_1:
	cmpl	$4, %eax
	ja	.LBB127_3
	movl	%eax, %ecx
	movslq	(%r15,%rcx,4), %rcx
	addq	%r15, %rcx
	jmpq	*%rcx
.LBB127_4:
	lock		cmpxchgl	%ebp, bevy_ecs::entity::_::<impl bevy_reflect::type_info::Typed for bevy_ecs::entity::Entity>::type_info::CELL+200(%rip)
	jne	.LBB127_1
	jmp	.LBB127_5
	.p2align	4, 0x90
.LBB127_13:
	movl	$2, %eax
	lock		cmpxchgl	%r12d, bevy_ecs::entity::_::<impl bevy_reflect::type_info::Typed for bevy_ecs::entity::Entity>::type_info::CELL+200(%rip)
	jne	.LBB127_1
	jmp	.LBB127_14
.LBB127_5:
	movq	%r14, 8(%rsp)
	movl	$1, 16(%rsp)
	movq	(%rbx), %rcx
	movq	(%rcx), %rax
	movq	$0, (%rcx)
	testq	%rax, %rax
	je	.LBB127_6
	movq	$7, (%rax)
	leaq	.Lanon.f381d664011984525626c761c6d28b35.816(%rip), %rcx
	movq	%rcx, 8(%rax)
	movq	$24, 16(%rax)
	leaq	bevy_ecs::entity::_::<impl bevy_reflect::type_path::TypePath for bevy_ecs::entity::Entity>::short_type_path(%rip), %rcx
	movq	%rcx, 24(%rax)
	leaq	bevy_ecs::entity::_::<impl bevy_reflect::type_path::TypePath for bevy_ecs::entity::Entity>::type_ident(%rip), %rcx
	movq	%rcx, 32(%rax)
	movq	bevy_ecs::entity::_::<impl bevy_reflect::type_path::TypePath for bevy_ecs::entity::Entity>::crate_name@GOTPCREL(%rip), %rcx
	movq	%rcx, 40(%rax)
	leaq	bevy_ecs::entity::_::<impl bevy_reflect::type_path::TypePath for bevy_ecs::entity::Entity>::module_path(%rip), %rcx
	movq	%rcx, 48(%rax)
	movabsq	$-7596598376638904423, %rcx
	movq	%rcx, 64(%rax)
	movabsq	$-490150967492282159, %rcx
	movq	%rcx, 56(%rax)
	movl	$4, 16(%rsp)
	leaq	8(%rsp), %rdi
	callq	*<std::sys_common::once::futex::CompletionGuard as core::ops::drop::Drop>::drop@GOTPCREL(%rip)
.LBB127_9:
	addq	$56, %rsp
	.cfi_def_cfa_offset 56
	popq	%rbx
	.cfi_def_cfa_offset 48
	popq	%r12
	.cfi_def_cfa_offset 40
	popq	%r13
	.cfi_def_cfa_offset 32
	popq	%r14
	.cfi_def_cfa_offset 24
	popq	%r15
	.cfi_def_cfa_offset 16
	popq	%rbp
	.cfi_def_cfa_offset 8
	retq
.LBB127_3:
	.cfi_def_cfa_offset 112
	leaq	.Lanon.f381d664011984525626c761c6d28b35.119(%rip), %rax
	movq	%rax, 8(%rsp)
	movq	$1, 16(%rsp)
	movq	%rsp, %rax
	movq	%rax, 24(%rsp)
	xorps	%xmm0, %xmm0
	movups	%xmm0, 32(%rsp)
	leaq	.Lanon.f381d664011984525626c761c6d28b35.121(%rip), %rsi
	leaq	8(%rsp), %rdi
	callq	*core::panicking::panic_fmt@GOTPCREL(%rip)
.LBB127_6:
.Ltmp569:
	leaq	.Lanon.f381d664011984525626c761c6d28b35.7(%rip), %rdi
	leaq	.Lanon.f381d664011984525626c761c6d28b35.122(%rip), %rdx
	movl	$43, %esi
	callq	*core::panicking::panic@GOTPCREL(%rip)
.Ltmp570:
	ud2
.LBB127_11:
.Ltmp571:
	movq	%rax, %rbx
.Ltmp572:
	leaq	8(%rsp), %rdi
	callq	*<std::sys_common::once::futex::CompletionGuard as core::ops::drop::Drop>::drop@GOTPCREL(%rip)
.Ltmp573:
	movq	%rbx, %rdi
	callq	_Unwind_Resume@PLT
.LBB127_10:
.Ltmp574:
	callq	*core::panicking::panic_in_cleanup@GOTPCREL(%rip)
.Lfunc_end127:
	.size	std::sys_common::once::futex::Once::call, .Lfunc_end127-std::sys_common::once::futex::Once::call
	.cfi_endproc
	.section	.rodata.unlikely.std::sys_common::once::futex::Once::call,"a",@progbits
	.p2align	2, 0x0
.LJTI127_0:
	.long	.LBB127_4-.LJTI127_0
	.long	.LBB127_4-.LJTI127_0
	.long	.LBB127_13-.LJTI127_0
	.long	.LBB127_14-.LJTI127_0
	.long	.LBB127_9-.LJTI127_0
	.section	.gcc_except_table.std::sys_common::once::futex::Once::call,"a",@progbits
	.p2align	2, 0x0
GCC_except_table127:
.Lexception33:
	.byte	255
	.byte	155
	.uleb128 .Lttbase31-.Lttbaseref31
.Lttbaseref31:
	.byte	1
	.uleb128 .Lcst_end33-.Lcst_begin33
.Lcst_begin33:
	.uleb128 .Lfunc_begin33-.Lfunc_begin33
	.uleb128 .Ltmp569-.Lfunc_begin33
	.byte	0
	.byte	0
	.uleb128 .Ltmp569-.Lfunc_begin33
	.uleb128 .Ltmp570-.Ltmp569
	.uleb128 .Ltmp571-.Lfunc_begin33
	.byte	0
	.uleb128 .Ltmp572-.Lfunc_begin33
	.uleb128 .Ltmp573-.Ltmp572
	.uleb128 .Ltmp574-.Lfunc_begin33
	.byte	1
	.uleb128 .Ltmp573-.Lfunc_begin33
	.uleb128 .Lfunc_end127-.Ltmp573
	.byte	0
	.byte	0
.Lcst_end33:
	.byte	127
	.byte	0
	.p2align	2, 0x0
.Lttbase31:
	.byte	0
	.p2align	2, 0x0

	.section	.text.unlikely.std::sys_common::once::futex::Once::call,"ax",@progbits
	.p2align	4, 0x90
	.type	std::sys_common::once::futex::Once::call,@function
std::sys_common::once::futex::Once::call:
.Lfunc_begin34:
	.cfi_startproc
	.cfi_personality 155, DW.ref.rust_eh_personality
	.cfi_lsda 27, .Lexception34
	pushq	%rbp
	.cfi_def_cfa_offset 16
	pushq	%r15
	.cfi_def_cfa_offset 24
	pushq	%r14
	.cfi_def_cfa_offset 32
	pushq	%r13
	.cfi_def_cfa_offset 40
	pushq	%r12
	.cfi_def_cfa_offset 48
	pushq	%rbx
	.cfi_def_cfa_offset 56
	subq	$104, %rsp
	.cfi_def_cfa_offset 160
	.cfi_offset %rbx, -56
	.cfi_offset %r12, -48
	.cfi_offset %r13, -40
	.cfi_offset %r14, -32
	.cfi_offset %r15, -24
	.cfi_offset %rbp, -16
	movq	%rdi, %rbx
	movl	bevy_ecs::component::_::<impl bevy_reflect::type_info::Typed for bevy_ecs::component::Tick>::type_info::CELL+200(%rip), %eax
	leaq	.LJTI128_0(%rip), %r15
	movl	$2, %ebp
	movl	$3, %r12d
	leaq	bevy_ecs::component::_::<impl bevy_reflect::type_info::Typed for bevy_ecs::component::Tick>::type_info::CELL+200(%rip), %r14
	movq	std::sys::unix::futex::futex_wait@GOTPCREL(%rip), %r13
	jmp	.LBB128_1
	.p2align	4, 0x90
.LBB128_30:
	movq	%r14, %rdi
	movl	$3, %esi
	movl	$1000000000, %ecx
	callq	*%r13
	movl	bevy_ecs::component::_::<impl bevy_reflect::type_info::Typed for bevy_ecs::component::Tick>::type_info::CELL+200(%rip), %eax
.LBB128_1:
	cmpl	$4, %eax
	ja	.LBB128_3
	movl	%eax, %ecx
	movslq	(%r15,%rcx,4), %rcx
	addq	%r15, %rcx
	jmpq	*%rcx
.LBB128_4:
	lock		cmpxchgl	%ebp, bevy_ecs::component::_::<impl bevy_reflect::type_info::Typed for bevy_ecs::component::Tick>::type_info::CELL+200(%rip)
	jne	.LBB128_1
	jmp	.LBB128_5
	.p2align	4, 0x90
.LBB128_29:
	movl	$2, %eax
	lock		cmpxchgl	%r12d, bevy_ecs::component::_::<impl bevy_reflect::type_info::Typed for bevy_ecs::component::Tick>::type_info::CELL+200(%rip)
	jne	.LBB128_1
	jmp	.LBB128_30
.LBB128_5:
	movq	%r14, 64(%rsp)
	movl	$1, 72(%rsp)
	movq	(%rbx), %rax
	movq	(%rax), %r13
	movq	$0, (%rax)
	testq	%r13, %r13
	je	.LBB128_6
	movq	__rust_no_alloc_shim_is_unstable@GOTPCREL(%rip), %rbp
	movzbl	(%rbp), %eax
	movl	$116, %edi
	movl	$16, %esi
	callq	*__rust_alloc@GOTPCREL(%rip)
	testq	%rax, %rax
	je	.LBB128_9
	movq	%rax, %rcx
	addq	$96, %rcx
	pcmpeqd	%xmm0, %xmm0
	movdqa	%xmm0, 96(%rax)
	movl	$-1, 112(%rax)
	movq	%rcx, 16(%rsp)
	movq	$3, 24(%rsp)
	movq	$3, 32(%rsp)
	movq	$0, 40(%rsp)
.Ltmp575:
	leaq	.Lanon.f381d664011984525626c761c6d28b35.793(%rip), %r15
	leaq	16(%rsp), %rdi
	movl	$4, %edx
	movq	%r15, %rsi
	xorl	%ecx, %ecx
	callq	hashbrown::map::HashMap<K,V,S,A>::insert
.Ltmp576:
	leaq	32(%rsp), %rax
	movq	16(%rsp), %r14
	movq	24(%rsp), %rbx
	movdqu	(%rax), %xmm0
	movdqa	%xmm0, 80(%rsp)
	movzbl	(%rbp), %eax
	movl	$16, %edi
	movl	$8, %esi
	callq	*__rust_alloc@GOTPCREL(%rip)
	testq	%rax, %rax
	je	.LBB128_17
	movq	%rax, %r12
	movq	%r15, (%rax)
	movq	$4, 8(%rax)
	movzbl	(%rbp), %eax
	movl	$80, %edi
	movl	$8, %esi
	callq	*__rust_alloc@GOTPCREL(%rip)
	testq	%rax, %rax
	je	.LBB128_13
	movq	%r15, (%rax)
	movq	$4, 8(%rax)
	leaq	.Lanon.f381d664011984525626c761c6d28b35.88(%rip), %rcx
	movq	%rcx, 16(%rax)
	movq	$3, 24(%rax)
	leaq	bevy_reflect::impls::std::_::<impl bevy_reflect::type_path::TypePath for u32>::short_type_path(%rip), %rcx
	movq	%rcx, 32(%rax)
	leaq	bevy_reflect::impls::std::_::<impl bevy_reflect::type_path::TypePath for u32>::type_ident(%rip), %rcx
	movq	%rcx, 40(%rax)
	leaq	bevy_reflect::impls::std::_::<impl bevy_reflect::type_path::TypePath for u32>::crate_name(%rip), %rcx
	movq	%rcx, 48(%rax)
	leaq	bevy_reflect::impls::std::_::<impl bevy_reflect::type_path::TypePath for u32>::module_path(%rip), %rcx
	movq	%rcx, 56(%rax)
	movabsq	$1403077013027291752, %rcx
	movq	%rcx, 72(%rax)
	movabsq	$4518903163082958039, %rcx
	movq	%rcx, 64(%rax)
	movaps	80(%rsp), %xmm0
	movaps	%xmm0, 16(%rsp)
	movq	$0, (%r13)
	leaq	.Lanon.f381d664011984525626c761c6d28b35.794(%rip), %rcx
	movq	%rcx, 8(%r13)
	movq	$25, 16(%r13)
	leaq	bevy_ecs::component::_::<impl bevy_reflect::type_path::TypePath for bevy_ecs::component::Tick>::short_type_path(%rip), %rcx
	movq	%rcx, 24(%r13)
	leaq	bevy_ecs::component::_::<impl bevy_reflect::type_path::TypePath for bevy_ecs::component::Tick>::type_ident(%rip), %rcx
	movq	%rcx, 32(%r13)
	movq	bevy_ecs::component::_::<impl bevy_reflect::type_path::TypePath for bevy_ecs::component::Tick>::crate_name@GOTPCREL(%rip), %rcx
	movq	%rcx, 40(%r13)
	leaq	bevy_ecs::component::_::<impl bevy_reflect::type_path::TypePath for bevy_ecs::component::Tick>::module_path(%rip), %rcx
	movq	%rcx, 48(%r13)
	movq	%rax, 56(%r13)
	movq	$1, 64(%r13)
	movq	%r12, 72(%r13)
	movq	$1, 80(%r13)
	movq	%r14, 88(%r13)
	movq	%rbx, 96(%r13)
	movaps	16(%rsp), %xmm0
	movups	%xmm0, 104(%r13)
	movabsq	$-3280778435104229682, %rax
	movq	%rax, 128(%r13)
	movabsq	$-9114487878057723459, %rax
	movq	%rax, 120(%r13)
	movl	$4, 72(%rsp)
	leaq	64(%rsp), %rdi
	callq	*<std::sys_common::once::futex::CompletionGuard as core::ops::drop::Drop>::drop@GOTPCREL(%rip)
.LBB128_27:
	addq	$104, %rsp
	.cfi_def_cfa_offset 56
	popq	%rbx
	.cfi_def_cfa_offset 48
	popq	%r12
	.cfi_def_cfa_offset 40
	popq	%r13
	.cfi_def_cfa_offset 32
	popq	%r14
	.cfi_def_cfa_offset 24
	popq	%r15
	.cfi_def_cfa_offset 16
	popq	%rbp
	.cfi_def_cfa_offset 8
	retq
.LBB128_3:
	.cfi_def_cfa_offset 160
	leaq	.Lanon.f381d664011984525626c761c6d28b35.119(%rip), %rax
	movq	%rax, 16(%rsp)
	movq	$1, 24(%rsp)
	leaq	8(%rsp), %rax
	movq	%rax, 32(%rsp)
	xorps	%xmm0, %xmm0
	movups	%xmm0, 40(%rsp)
	leaq	.Lanon.f381d664011984525626c761c6d28b35.121(%rip), %rsi
	leaq	16(%rsp), %rdi
	callq	*core::panicking::panic_fmt@GOTPCREL(%rip)
.LBB128_6:
.Ltmp586:
	leaq	.Lanon.f381d664011984525626c761c6d28b35.7(%rip), %rdi
	leaq	.Lanon.f381d664011984525626c761c6d28b35.122(%rip), %rdx
	movl	$43, %esi
	callq	*core::panicking::panic@GOTPCREL(%rip)
.Ltmp587:
	jmp	.LBB128_7
.LBB128_9:
.Ltmp584:
	movl	$16, %edi
	movl	$116, %esi
	callq	*alloc::alloc::handle_alloc_error@GOTPCREL(%rip)
.Ltmp585:
	jmp	.LBB128_7
.LBB128_17:
.Ltmp581:
	movl	$8, %edi
	movl	$16, %esi
	callq	*alloc::alloc::handle_alloc_error@GOTPCREL(%rip)
.Ltmp582:
	jmp	.LBB128_7
.LBB128_13:
.Ltmp578:
	movl	$8, %edi
	movl	$80, %esi
	callq	*alloc::alloc::handle_alloc_error@GOTPCREL(%rip)
.Ltmp579:
.LBB128_7:
	ud2
.LBB128_22:
.Ltmp580:
	movq	%rax, %r15
	movl	$16, %esi
	movl	$8, %edx
	movq	%r12, %rdi
	callq	*__rust_dealloc@GOTPCREL(%rip)
	jmp	.LBB128_19
.LBB128_18:
.Ltmp583:
	movq	%rax, %r15
.LBB128_19:
	testq	%rbx, %rbx
	je	.LBB128_24
	leaq	1(%rbx), %rax
	movl	$24, %ecx
	mulq	%rcx
	addq	$15, %rax
	andq	$-16, %rax
	addq	%rax, %rbx
	addq	$17, %rbx
	jne	.LBB128_21
	jmp	.LBB128_24
.LBB128_14:
.Ltmp577:
	movq	%rax, %r15
	movq	24(%rsp), %rbx
	testq	%rbx, %rbx
	je	.LBB128_24
	leaq	1(%rbx), %rax
	movl	$24, %ecx
	mulq	%rcx
	addq	$15, %rax
	andq	$-16, %rax
	addq	%rax, %rbx
	addq	$17, %rbx
	je	.LBB128_24
	movq	16(%rsp), %r14
.LBB128_21:
	subq	%rax, %r14
	movl	$16, %edx
	movq	%r14, %rdi
	movq	%rbx, %rsi
	callq	*__rust_dealloc@GOTPCREL(%rip)
	jmp	.LBB128_24
.LBB128_23:
.Ltmp588:
	movq	%rax, %r15
.LBB128_24:
.Ltmp589:
	leaq	64(%rsp), %rdi
	callq	*<std::sys_common::once::futex::CompletionGuard as core::ops::drop::Drop>::drop@GOTPCREL(%rip)
.Ltmp590:
	movq	%r15, %rdi
	callq	_Unwind_Resume@PLT
.LBB128_28:
.Ltmp591:
	callq	*core::panicking::panic_in_cleanup@GOTPCREL(%rip)
.Lfunc_end128:
	.size	std::sys_common::once::futex::Once::call, .Lfunc_end128-std::sys_common::once::futex::Once::call
	.cfi_endproc
	.section	.rodata.unlikely.std::sys_common::once::futex::Once::call,"a",@progbits
	.p2align	2, 0x0
.LJTI128_0:
	.long	.LBB128_4-.LJTI128_0
	.long	.LBB128_4-.LJTI128_0
	.long	.LBB128_29-.LJTI128_0
	.long	.LBB128_30-.LJTI128_0
	.long	.LBB128_27-.LJTI128_0
	.section	.gcc_except_table.std::sys_common::once::futex::Once::call,"a",@progbits
	.p2align	2, 0x0
GCC_except_table128:
.Lexception34:
	.byte	255
	.byte	155
	.uleb128 .Lttbase32-.Lttbaseref32
.Lttbaseref32:
	.byte	1
	.uleb128 .Lcst_end34-.Lcst_begin34
.Lcst_begin34:
	.uleb128 .Lfunc_begin34-.Lfunc_begin34
	.uleb128 .Ltmp575-.Lfunc_begin34
	.byte	0
	.byte	0
	.uleb128 .Ltmp575-.Lfunc_begin34
	.uleb128 .Ltmp576-.Ltmp575
	.uleb128 .Ltmp577-.Lfunc_begin34
	.byte	0
	.uleb128 .Ltmp576-.Lfunc_begin34
	.uleb128 .Ltmp586-.Ltmp576
	.byte	0
	.byte	0
	.uleb128 .Ltmp586-.Lfunc_begin34
	.uleb128 .Ltmp585-.Ltmp586
	.uleb128 .Ltmp588-.Lfunc_begin34
	.byte	0
	.uleb128 .Ltmp581-.Lfunc_begin34
	.uleb128 .Ltmp582-.Ltmp581
	.uleb128 .Ltmp583-.Lfunc_begin34
	.byte	0
	.uleb128 .Ltmp578-.Lfunc_begin34
	.uleb128 .Ltmp579-.Ltmp578
	.uleb128 .Ltmp580-.Lfunc_begin34
	.byte	0
	.uleb128 .Ltmp589-.Lfunc_begin34
	.uleb128 .Ltmp590-.Ltmp589
	.uleb128 .Ltmp591-.Lfunc_begin34
	.byte	1
	.uleb128 .Ltmp590-.Lfunc_begin34
	.uleb128 .Lfunc_end128-.Ltmp590
	.byte	0
	.byte	0
.Lcst_end34:
	.byte	127
	.byte	0
	.p2align	2, 0x0
.Lttbase32:
	.byte	0
	.p2align	2, 0x0

	.section	.text.unlikely.std::sys_common::once::futex::Once::call,"ax",@progbits
	.p2align	4, 0x90
	.type	std::sys_common::once::futex::Once::call,@function
std::sys_common::once::futex::Once::call:
.Lfunc_begin35:
	.cfi_startproc
	.cfi_personality 155, DW.ref.rust_eh_personality
	.cfi_lsda 27, .Lexception35
	pushq	%rbp
	.cfi_def_cfa_offset 16
	pushq	%r15
	.cfi_def_cfa_offset 24
	pushq	%r14
	.cfi_def_cfa_offset 32
	pushq	%r13
	.cfi_def_cfa_offset 40
	pushq	%r12
	.cfi_def_cfa_offset 48
	pushq	%rbx
	.cfi_def_cfa_offset 56
	subq	$136, %rsp
	.cfi_def_cfa_offset 192
	.cfi_offset %rbx, -56
	.cfi_offset %r12, -48
	.cfi_offset %r13, -40
	.cfi_offset %r14, -32
	.cfi_offset %r15, -24
	.cfi_offset %rbp, -16
	movq	%rdi, 24(%rsp)
	movq	bevy_ecs::schedule::set::SCHEDULE_LABEL_INTERNER@GOTPCREL(%rip), %r15
	movl	48(%r15), %eax
	leaq	.LJTI129_0(%rip), %r12
	movl	$2, %ebp
	movl	$3, %r13d
	leaq	48(%r15), %r14
	movq	std::sys::unix::futex::futex_wait@GOTPCREL(%rip), %rbx
	jmp	.LBB129_1
	.p2align	4, 0x90
.LBB129_14:
	movq	%r14, %rdi
	movl	$3, %esi
	movl	$1000000000, %ecx
	callq	*%rbx
	movl	48(%r15), %eax
.LBB129_1:
	cmpl	$4, %eax
	ja	.LBB129_3
	movl	%eax, %ecx
	movslq	(%r12,%rcx,4), %rcx
	addq	%r12, %rcx
	jmpq	*%rcx
.LBB129_4:
	lock		cmpxchgl	%ebp, 48(%r15)
	jne	.LBB129_1
	jmp	.LBB129_5
	.p2align	4, 0x90
.LBB129_13:
	movl	$2, %eax
	lock		cmpxchgl	%r13d, 48(%r15)
	jne	.LBB129_1
	jmp	.LBB129_14
.LBB129_5:
	movq	%r14, 8(%rsp)
	movl	$1, 16(%rsp)
	movq	24(%rsp), %rax
	movq	(%rax), %rcx
	movq	(%rcx), %rax
	movq	$0, (%rcx)
	testq	%rax, %rax
	je	.LBB129_6
	movb	$0, 40(%rsp)
	movq	$0, 32(%rsp)
	movups	.Lanon.f381d664011984525626c761c6d28b35.248(%rip), %xmm0
	movups	%xmm0, 48(%rsp)
	movups	.Lanon.f381d664011984525626c761c6d28b35.248+16(%rip), %xmm1
	movups	%xmm1, 64(%rsp)
	movaps	%xmm1, 112(%rsp)
	movaps	%xmm0, 96(%rsp)
	movups	32(%rsp), %xmm2
	movaps	%xmm2, 80(%rsp)
	movups	%xmm1, 32(%rax)
	movups	%xmm0, 16(%rax)
	movups	%xmm2, (%rax)
	movl	$4, 16(%rsp)
	leaq	8(%rsp), %rdi
	callq	*<std::sys_common::once::futex::CompletionGuard as core::ops::drop::Drop>::drop@GOTPCREL(%rip)
.LBB129_9:
	addq	$136, %rsp
	.cfi_def_cfa_offset 56
	popq	%rbx
	.cfi_def_cfa_offset 48
	popq	%r12
	.cfi_def_cfa_offset 40
	popq	%r13
	.cfi_def_cfa_offset 32
	popq	%r14
	.cfi_def_cfa_offset 24
	popq	%r15
	.cfi_def_cfa_offset 16
	popq	%rbp
	.cfi_def_cfa_offset 8
	retq
.LBB129_3:
	.cfi_def_cfa_offset 192
	leaq	.Lanon.f381d664011984525626c761c6d28b35.119(%rip), %rax
	movq	%rax, 32(%rsp)
	movq	$1, 40(%rsp)
	movq	%rsp, %rax
	movq	%rax, 48(%rsp)
	xorps	%xmm0, %xmm0
	movups	%xmm0, 56(%rsp)
	leaq	.Lanon.f381d664011984525626c761c6d28b35.121(%rip), %rsi
	leaq	32(%rsp), %rdi
	callq	*core::panicking::panic_fmt@GOTPCREL(%rip)
.LBB129_6:
.Ltmp592:
	leaq	.Lanon.f381d664011984525626c761c6d28b35.7(%rip), %rdi
	leaq	.Lanon.f381d664011984525626c761c6d28b35.122(%rip), %rdx
	movl	$43, %esi
	callq	*core::panicking::panic@GOTPCREL(%rip)
.Ltmp593:
	ud2
.LBB129_11:
.Ltmp594:
	movq	%rax, %rbx
.Ltmp595:
	leaq	8(%rsp), %rdi
	callq	*<std::sys_common::once::futex::CompletionGuard as core::ops::drop::Drop>::drop@GOTPCREL(%rip)
.Ltmp596:
	movq	%rbx, %rdi
	callq	_Unwind_Resume@PLT
.LBB129_10:
.Ltmp597:
	callq	*core::panicking::panic_in_cleanup@GOTPCREL(%rip)
.Lfunc_end129:
	.size	std::sys_common::once::futex::Once::call, .Lfunc_end129-std::sys_common::once::futex::Once::call
	.cfi_endproc
	.section	.rodata.unlikely.std::sys_common::once::futex::Once::call,"a",@progbits
	.p2align	2, 0x0
.LJTI129_0:
	.long	.LBB129_4-.LJTI129_0
	.long	.LBB129_4-.LJTI129_0
	.long	.LBB129_13-.LJTI129_0
	.long	.LBB129_14-.LJTI129_0
	.long	.LBB129_9-.LJTI129_0
	.section	.gcc_except_table.std::sys_common::once::futex::Once::call,"a",@progbits
	.p2align	2, 0x0
GCC_except_table129:
.Lexception35:
	.byte	255
	.byte	155
	.uleb128 .Lttbase33-.Lttbaseref33
.Lttbaseref33:
	.byte	1
	.uleb128 .Lcst_end35-.Lcst_begin35
.Lcst_begin35:
	.uleb128 .Lfunc_begin35-.Lfunc_begin35
	.uleb128 .Ltmp592-.Lfunc_begin35
	.byte	0
	.byte	0
	.uleb128 .Ltmp592-.Lfunc_begin35
	.uleb128 .Ltmp593-.Ltmp592
	.uleb128 .Ltmp594-.Lfunc_begin35
	.byte	0
	.uleb128 .Ltmp595-.Lfunc_begin35
	.uleb128 .Ltmp596-.Ltmp595
	.uleb128 .Ltmp597-.Lfunc_begin35
	.byte	1
	.uleb128 .Ltmp596-.Lfunc_begin35
	.uleb128 .Lfunc_end129-.Ltmp596
	.byte	0
	.byte	0
.Lcst_end35:
	.byte	127
	.byte	0
	.p2align	2, 0x0
.Lttbase33:
	.byte	0
	.p2align	2, 0x0

	.section	.text.unlikely.std::sys_common::once::futex::Once::call,"ax",@progbits
	.p2align	4, 0x90
	.type	std::sys_common::once::futex::Once::call,@function
std::sys_common::once::futex::Once::call:
.Lfunc_begin36:
	.cfi_startproc
	.cfi_personality 155, DW.ref.rust_eh_personality
	.cfi_lsda 27, .Lexception36
	pushq	%rbp
	.cfi_def_cfa_offset 16
	pushq	%r15
	.cfi_def_cfa_offset 24
	pushq	%r14
	.cfi_def_cfa_offset 32
	pushq	%r13
	.cfi_def_cfa_offset 40
	pushq	%r12
	.cfi_def_cfa_offset 48
	pushq	%rbx
	.cfi_def_cfa_offset 56
	subq	$104, %rsp
	.cfi_def_cfa_offset 160
	.cfi_offset %rbx, -56
	.cfi_offset %r12, -48
	.cfi_offset %r13, -40
	.cfi_offset %r14, -32
	.cfi_offset %r15, -24
	.cfi_offset %rbp, -16
	movq	%rdi, %rbx
	movl	bevy_ecs::component::_::<impl bevy_reflect::type_info::Typed for bevy_ecs::component::ComponentTicks>::type_info::CELL+200(%rip), %eax
	leaq	.LJTI130_0(%rip), %r15
	movl	$2, %ebp
	movl	$3, %r12d
	leaq	bevy_ecs::component::_::<impl bevy_reflect::type_info::Typed for bevy_ecs::component::ComponentTicks>::type_info::CELL+200(%rip), %r14
	movq	std::sys::unix::futex::futex_wait@GOTPCREL(%rip), %r13
	jmp	.LBB130_1
	.p2align	4, 0x90
.LBB130_31:
	movq	%r14, %rdi
	movl	$3, %esi
	movl	$1000000000, %ecx
	callq	*%r13
	movl	bevy_ecs::component::_::<impl bevy_reflect::type_info::Typed for bevy_ecs::component::ComponentTicks>::type_info::CELL+200(%rip), %eax
.LBB130_1:
	cmpl	$4, %eax
	ja	.LBB130_3
	movl	%eax, %ecx
	movslq	(%r15,%rcx,4), %rcx
	addq	%r15, %rcx
	jmpq	*%rcx
.LBB130_4:
	lock		cmpxchgl	%ebp, bevy_ecs::component::_::<impl bevy_reflect::type_info::Typed for bevy_ecs::component::ComponentTicks>::type_info::CELL+200(%rip)
	jne	.LBB130_1
	jmp	.LBB130_5
	.p2align	4, 0x90
.LBB130_30:
	movl	$2, %eax
	lock		cmpxchgl	%r12d, bevy_ecs::component::_::<impl bevy_reflect::type_info::Typed for bevy_ecs::component::ComponentTicks>::type_info::CELL+200(%rip)
	jne	.LBB130_1
	jmp	.LBB130_31
.LBB130_5:
	movq	%r14, 64(%rsp)
	movl	$1, 72(%rsp)
	movq	(%rbx), %rax
	movq	(%rax), %rbp
	movq	$0, (%rax)
	testq	%rbp, %rbp
	je	.LBB130_6
	movq	__rust_no_alloc_shim_is_unstable@GOTPCREL(%rip), %rbx
	movzbl	(%rbx), %eax
	movl	$116, %edi
	movl	$16, %esi
	callq	*__rust_alloc@GOTPCREL(%rip)
	testq	%rax, %rax
	je	.LBB130_9
	movq	%rax, %rcx
	addq	$96, %rcx
	pcmpeqd	%xmm0, %xmm0
	movdqa	%xmm0, 96(%rax)
	movl	$-1, 112(%rax)
	movq	%rcx, 16(%rsp)
	movq	$3, 24(%rsp)
	movq	$3, 32(%rsp)
	movq	$0, 40(%rsp)
.Ltmp598:
	leaq	.Lanon.f381d664011984525626c761c6d28b35.799(%rip), %r13
	leaq	16(%rsp), %rdi
	movl	$5, %edx
	movq	%r13, %rsi
	xorl	%ecx, %ecx
	callq	hashbrown::map::HashMap<K,V,S,A>::insert
.Ltmp599:
.Ltmp600:
	leaq	.Lanon.f381d664011984525626c761c6d28b35.800(%rip), %r15
	leaq	16(%rsp), %rdi
	movl	$7, %edx
	movl	$1, %ecx
	movq	%r15, %rsi
	callq	hashbrown::map::HashMap<K,V,S,A>::insert
.Ltmp601:
	leaq	32(%rsp), %rax
	movq	16(%rsp), %rcx
	movq	%rcx, 8(%rsp)
	movq	24(%rsp), %r14
	movdqu	(%rax), %xmm0
	movdqa	%xmm0, 80(%rsp)
	movzbl	(%rbx), %eax
	movl	$32, %edi
	movl	$8, %esi
	callq	*__rust_alloc@GOTPCREL(%rip)
	testq	%rax, %rax
	je	.LBB130_18
	movq	%rax, %r12
	movq	%r13, (%rax)
	movq	$5, 8(%rax)
	movq	%r15, 16(%rax)
	movq	$7, 24(%rax)
	movzbl	(%rbx), %eax
	movl	$160, %edi
	movl	$8, %esi
	callq	*__rust_alloc@GOTPCREL(%rip)
	testq	%rax, %rax
	je	.LBB130_14
	movq	%r13, (%rax)
	movq	$5, 8(%rax)
	leaq	.Lanon.f381d664011984525626c761c6d28b35.794(%rip), %rcx
	movq	%rcx, 16(%rax)
	movq	$25, 24(%rax)
	leaq	bevy_ecs::component::_::<impl bevy_reflect::type_path::TypePath for bevy_ecs::component::Tick>::short_type_path(%rip), %rdx
	movq	%rdx, 32(%rax)
	leaq	bevy_ecs::component::_::<impl bevy_reflect::type_path::TypePath for bevy_ecs::component::Tick>::type_ident(%rip), %rsi
	movq	%rsi, 40(%rax)
	movq	bevy_ecs::component::_::<impl bevy_reflect::type_path::TypePath for bevy_ecs::component::Tick>::crate_name@GOTPCREL(%rip), %rdi
	movq	%rdi, 48(%rax)
	leaq	bevy_ecs::component::_::<impl bevy_reflect::type_path::TypePath for bevy_ecs::component::Tick>::module_path(%rip), %r8
	movq	%r8, 56(%rax)
	movabsq	$-3280778435104229682, %r9
	movq	%r9, 72(%rax)
	movabsq	$-9114487878057723459, %r10
	movq	%r10, 64(%rax)
	movq	%r15, 80(%rax)
	movq	$7, 88(%rax)
	movq	%rcx, 96(%rax)
	movq	$25, 104(%rax)
	movq	%rdx, 112(%rax)
	movq	%rsi, 120(%rax)
	movq	%rdi, 128(%rax)
	movq	%r8, 136(%rax)
	movq	%r9, 152(%rax)
	movq	%r10, 144(%rax)
	movaps	80(%rsp), %xmm0
	movaps	%xmm0, 16(%rsp)
	movq	$0, (%rbp)
	leaq	.Lanon.f381d664011984525626c761c6d28b35.801(%rip), %rcx
	movq	%rcx, 8(%rbp)
	movq	$35, 16(%rbp)
	leaq	bevy_ecs::component::_::<impl bevy_reflect::type_path::TypePath for bevy_ecs::component::ComponentTicks>::short_type_path(%rip), %rcx
	movq	%rcx, 24(%rbp)
	leaq	bevy_ecs::component::_::<impl bevy_reflect::type_path::TypePath for bevy_ecs::component::ComponentTicks>::type_ident(%rip), %rcx
	movq	%rcx, 32(%rbp)
	movq	bevy_ecs::component::_::<impl bevy_reflect::type_path::TypePath for bevy_ecs::component::ComponentTicks>::crate_name@GOTPCREL(%rip), %rcx
	movq	%rcx, 40(%rbp)
	leaq	bevy_ecs::component::_::<impl bevy_reflect::type_path::TypePath for bevy_ecs::component::ComponentTicks>::module_path(%rip), %rcx
	movq	%rcx, 48(%rbp)
	movq	%rax, 56(%rbp)
	movq	$2, 64(%rbp)
	movq	%r12, 72(%rbp)
	movq	$2, 80(%rbp)
	movq	8(%rsp), %rax
	movq	%rax, 88(%rbp)
	movq	%r14, 96(%rbp)
	movaps	16(%rsp), %xmm0
	movups	%xmm0, 104(%rbp)
	movabsq	$336799929167591734, %rax
	movq	%rax, 128(%rbp)
	movabsq	$5675505804111296054, %rax
	movq	%rax, 120(%rbp)
	movl	$4, 72(%rsp)
	leaq	64(%rsp), %rdi
	callq	*<std::sys_common::once::futex::CompletionGuard as core::ops::drop::Drop>::drop@GOTPCREL(%rip)
.LBB130_28:
	addq	$104, %rsp
	.cfi_def_cfa_offset 56
	popq	%rbx
	.cfi_def_cfa_offset 48
	popq	%r12
	.cfi_def_cfa_offset 40
	popq	%r13
	.cfi_def_cfa_offset 32
	popq	%r14
	.cfi_def_cfa_offset 24
	popq	%r15
	.cfi_def_cfa_offset 16
	popq	%rbp
	.cfi_def_cfa_offset 8
	retq
.LBB130_3:
	.cfi_def_cfa_offset 160
	leaq	.Lanon.f381d664011984525626c761c6d28b35.119(%rip), %rax
	movq	%rax, 16(%rsp)
	movq	$1, 24(%rsp)
	movq	%rsp, %rax
	movq	%rax, 32(%rsp)
	xorps	%xmm0, %xmm0
	movups	%xmm0, 40(%rsp)
	leaq	.Lanon.f381d664011984525626c761c6d28b35.121(%rip), %rsi
	leaq	16(%rsp), %rdi
	callq	*core::panicking::panic_fmt@GOTPCREL(%rip)
.LBB130_6:
.Ltmp611:
	leaq	.Lanon.f381d664011984525626c761c6d28b35.7(%rip), %rdi
	leaq	.Lanon.f381d664011984525626c761c6d28b35.122(%rip), %rdx
	movl	$43, %esi
	callq	*core::panicking::panic@GOTPCREL(%rip)
.Ltmp612:
	jmp	.LBB130_7
.LBB130_9:
.Ltmp609:
	movl	$16, %edi
	movl	$116, %esi
	callq	*alloc::alloc::handle_alloc_error@GOTPCREL(%rip)
.Ltmp610:
	jmp	.LBB130_7
.LBB130_18:
.Ltmp606:
	movl	$8, %edi
	movl	$32, %esi
	callq	*alloc::alloc::handle_alloc_error@GOTPCREL(%rip)
.Ltmp607:
	jmp	.LBB130_7
.LBB130_14:
.Ltmp603:
	movl	$8, %edi
	movl	$160, %esi
	callq	*alloc::alloc::handle_alloc_error@GOTPCREL(%rip)
.Ltmp604:
.LBB130_7:
	ud2
.LBB130_23:
.Ltmp605:
	movq	%rax, %r15
	movl	$32, %esi
	movl	$8, %edx
	movq	%r12, %rdi
	callq	*__rust_dealloc@GOTPCREL(%rip)
	jmp	.LBB130_20
.LBB130_19:
.Ltmp608:
	movq	%rax, %r15
.LBB130_20:
	testq	%r14, %r14
	je	.LBB130_25
	leaq	1(%r14), %rax
	movl	$24, %ecx
	mulq	%rcx
	addq	$15, %rax
	andq	$-16, %rax
	addq	%rax, %r14
	addq	$17, %r14
	movq	%r14, %rsi
	jne	.LBB130_22
	jmp	.LBB130_25
.LBB130_15:
.Ltmp602:
	movq	%rax, %r15
	movq	24(%rsp), %rcx
	testq	%rcx, %rcx
	je	.LBB130_25
	movq	%rcx, %rax
	movq	%rcx, %rsi
	incq	%rax
	movl	$24, %ecx
	mulq	%rcx
	addq	$15, %rax
	andq	$-16, %rax
	addq	%rax, %rsi
	addq	$17, %rsi
	je	.LBB130_25
	movq	16(%rsp), %rcx
	movq	%rcx, 8(%rsp)
.LBB130_22:
	movq	8(%rsp), %rdi
	subq	%rax, %rdi
	movl	$16, %edx
	callq	*__rust_dealloc@GOTPCREL(%rip)
	jmp	.LBB130_25
.LBB130_24:
.Ltmp613:
	movq	%rax, %r15
.LBB130_25:
.Ltmp614:
	leaq	64(%rsp), %rdi
	callq	*<std::sys_common::once::futex::CompletionGuard as core::ops::drop::Drop>::drop@GOTPCREL(%rip)
.Ltmp615:
	movq	%r15, %rdi
	callq	_Unwind_Resume@PLT
.LBB130_29:
.Ltmp616:
	callq	*core::panicking::panic_in_cleanup@GOTPCREL(%rip)
.Lfunc_end130:
	.size	std::sys_common::once::futex::Once::call, .Lfunc_end130-std::sys_common::once::futex::Once::call
	.cfi_endproc
	.section	.rodata.unlikely.std::sys_common::once::futex::Once::call,"a",@progbits
	.p2align	2, 0x0
.LJTI130_0:
	.long	.LBB130_4-.LJTI130_0
	.long	.LBB130_4-.LJTI130_0
	.long	.LBB130_30-.LJTI130_0
	.long	.LBB130_31-.LJTI130_0
	.long	.LBB130_28-.LJTI130_0
	.section	.gcc_except_table.std::sys_common::once::futex::Once::call,"a",@progbits
	.p2align	2, 0x0
GCC_except_table130:
.Lexception36:
	.byte	255
	.byte	155
	.uleb128 .Lttbase34-.Lttbaseref34
.Lttbaseref34:
	.byte	1
	.uleb128 .Lcst_end36-.Lcst_begin36
.Lcst_begin36:
	.uleb128 .Lfunc_begin36-.Lfunc_begin36
	.uleb128 .Ltmp598-.Lfunc_begin36
	.byte	0
	.byte	0
	.uleb128 .Ltmp598-.Lfunc_begin36
	.uleb128 .Ltmp601-.Ltmp598
	.uleb128 .Ltmp602-.Lfunc_begin36
	.byte	0
	.uleb128 .Ltmp601-.Lfunc_begin36
	.uleb128 .Ltmp611-.Ltmp601
	.byte	0
	.byte	0
	.uleb128 .Ltmp611-.Lfunc_begin36
	.uleb128 .Ltmp610-.Ltmp611
	.uleb128 .Ltmp613-.Lfunc_begin36
	.byte	0
	.uleb128 .Ltmp606-.Lfunc_begin36
	.uleb128 .Ltmp607-.Ltmp606
	.uleb128 .Ltmp608-.Lfunc_begin36
	.byte	0
	.uleb128 .Ltmp603-.Lfunc_begin36
	.uleb128 .Ltmp604-.Ltmp603
	.uleb128 .Ltmp605-.Lfunc_begin36
	.byte	0
	.uleb128 .Ltmp614-.Lfunc_begin36
	.uleb128 .Ltmp615-.Ltmp614
	.uleb128 .Ltmp616-.Lfunc_begin36
	.byte	1
	.uleb128 .Ltmp615-.Lfunc_begin36
	.uleb128 .Lfunc_end130-.Ltmp615
	.byte	0
	.byte	0
.Lcst_end36:
	.byte	127
	.byte	0
	.p2align	2, 0x0
.Lttbase34:
	.byte	0
	.p2align	2, 0x0

	.section	.text.unlikely.std::sys_common::once::futex::Once::call,"ax",@progbits
	.p2align	4, 0x90
	.type	std::sys_common::once::futex::Once::call,@function
std::sys_common::once::futex::Once::call:
.Lfunc_begin37:
	.cfi_startproc
	.cfi_personality 155, DW.ref.rust_eh_personality
	.cfi_lsda 27, .Lexception37
	pushq	%rbp
	.cfi_def_cfa_offset 16
	pushq	%r15
	.cfi_def_cfa_offset 24
	pushq	%r14
	.cfi_def_cfa_offset 32
	pushq	%r13
	.cfi_def_cfa_offset 40
	pushq	%r12
	.cfi_def_cfa_offset 48
	pushq	%rbx
	.cfi_def_cfa_offset 56
	subq	$136, %rsp
	.cfi_def_cfa_offset 192
	.cfi_offset %rbx, -56
	.cfi_offset %r12, -48
	.cfi_offset %r13, -40
	.cfi_offset %r14, -32
	.cfi_offset %r15, -24
	.cfi_offset %rbp, -16
	movq	%rdi, 24(%rsp)
	movq	bevy_ecs::schedule::set::SYSTEM_SET_INTERNER@GOTPCREL(%rip), %r15
	movl	48(%r15), %eax
	leaq	.LJTI131_0(%rip), %r12
	movl	$2, %ebp
	movl	$3, %r13d
	leaq	48(%r15), %r14
	movq	std::sys::unix::futex::futex_wait@GOTPCREL(%rip), %rbx
	jmp	.LBB131_1
	.p2align	4, 0x90
.LBB131_14:
	movq	%r14, %rdi
	movl	$3, %esi
	movl	$1000000000, %ecx
	callq	*%rbx
	movl	48(%r15), %eax
.LBB131_1:
	cmpl	$4, %eax
	ja	.LBB131_3
	movl	%eax, %ecx
	movslq	(%r12,%rcx,4), %rcx
	addq	%r12, %rcx
	jmpq	*%rcx
.LBB131_4:
	lock		cmpxchgl	%ebp, 48(%r15)
	jne	.LBB131_1
	jmp	.LBB131_5
	.p2align	4, 0x90
.LBB131_13:
	movl	$2, %eax
	lock		cmpxchgl	%r13d, 48(%r15)
	jne	.LBB131_1
	jmp	.LBB131_14
.LBB131_5:
	movq	%r14, 8(%rsp)
	movl	$1, 16(%rsp)
	movq	24(%rsp), %rax
	movq	(%rax), %rcx
	movq	(%rcx), %rax
	movq	$0, (%rcx)
	testq	%rax, %rax
	je	.LBB131_6
	movb	$0, 40(%rsp)
	movq	$0, 32(%rsp)
	movups	.Lanon.f381d664011984525626c761c6d28b35.248(%rip), %xmm0
	movups	%xmm0, 48(%rsp)
	movups	.Lanon.f381d664011984525626c761c6d28b35.248+16(%rip), %xmm1
	movups	%xmm1, 64(%rsp)
	movaps	%xmm1, 112(%rsp)
	movaps	%xmm0, 96(%rsp)
	movups	32(%rsp), %xmm2
	movaps	%xmm2, 80(%rsp)
	movups	%xmm1, 32(%rax)
	movups	%xmm0, 16(%rax)
	movups	%xmm2, (%rax)
	movl	$4, 16(%rsp)
	leaq	8(%rsp), %rdi
	callq	*<std::sys_common::once::futex::CompletionGuard as core::ops::drop::Drop>::drop@GOTPCREL(%rip)
.LBB131_9:
	addq	$136, %rsp
	.cfi_def_cfa_offset 56
	popq	%rbx
	.cfi_def_cfa_offset 48
	popq	%r12
	.cfi_def_cfa_offset 40
	popq	%r13
	.cfi_def_cfa_offset 32
	popq	%r14
	.cfi_def_cfa_offset 24
	popq	%r15
	.cfi_def_cfa_offset 16
	popq	%rbp
	.cfi_def_cfa_offset 8
	retq
.LBB131_3:
	.cfi_def_cfa_offset 192
	leaq	.Lanon.f381d664011984525626c761c6d28b35.119(%rip), %rax
	movq	%rax, 32(%rsp)
	movq	$1, 40(%rsp)
	movq	%rsp, %rax
	movq	%rax, 48(%rsp)
	xorps	%xmm0, %xmm0
	movups	%xmm0, 56(%rsp)
	leaq	.Lanon.f381d664011984525626c761c6d28b35.121(%rip), %rsi
	leaq	32(%rsp), %rdi
	callq	*core::panicking::panic_fmt@GOTPCREL(%rip)
.LBB131_6:
.Ltmp617:
	leaq	.Lanon.f381d664011984525626c761c6d28b35.7(%rip), %rdi
	leaq	.Lanon.f381d664011984525626c761c6d28b35.122(%rip), %rdx
	movl	$43, %esi
	callq	*core::panicking::panic@GOTPCREL(%rip)
.Ltmp618:
	ud2
.LBB131_11:
.Ltmp619:
	movq	%rax, %rbx
.Ltmp620:
	leaq	8(%rsp), %rdi
	callq	*<std::sys_common::once::futex::CompletionGuard as core::ops::drop::Drop>::drop@GOTPCREL(%rip)
.Ltmp621:
	movq	%rbx, %rdi
	callq	_Unwind_Resume@PLT
.LBB131_10:
.Ltmp622:
	callq	*core::panicking::panic_in_cleanup@GOTPCREL(%rip)
.Lfunc_end131:
	.size	std::sys_common::once::futex::Once::call, .Lfunc_end131-std::sys_common::once::futex::Once::call
	.cfi_endproc
	.section	.rodata.unlikely.std::sys_common::once::futex::Once::call,"a",@progbits
	.p2align	2, 0x0
.LJTI131_0:
	.long	.LBB131_4-.LJTI131_0
	.long	.LBB131_4-.LJTI131_0
	.long	.LBB131_13-.LJTI131_0
	.long	.LBB131_14-.LJTI131_0
	.long	.LBB131_9-.LJTI131_0
	.section	.gcc_except_table.std::sys_common::once::futex::Once::call,"a",@progbits
	.p2align	2, 0x0
GCC_except_table131:
.Lexception37:
	.byte	255
	.byte	155
	.uleb128 .Lttbase35-.Lttbaseref35
.Lttbaseref35:
	.byte	1
	.uleb128 .Lcst_end37-.Lcst_begin37
.Lcst_begin37:
	.uleb128 .Lfunc_begin37-.Lfunc_begin37
	.uleb128 .Ltmp617-.Lfunc_begin37
	.byte	0
	.byte	0
	.uleb128 .Ltmp617-.Lfunc_begin37
	.uleb128 .Ltmp618-.Ltmp617
	.uleb128 .Ltmp619-.Lfunc_begin37
	.byte	0
	.uleb128 .Ltmp620-.Lfunc_begin37
	.uleb128 .Ltmp621-.Ltmp620
	.uleb128 .Ltmp622-.Lfunc_begin37
	.byte	1
	.uleb128 .Ltmp621-.Lfunc_begin37
	.uleb128 .Lfunc_end131-.Ltmp621
	.byte	0
	.byte	0
.Lcst_end37:
	.byte	127
	.byte	0
	.p2align	2, 0x0
.Lttbase35:
	.byte	0
	.p2align	2, 0x0

	.section	".text.std::sys::common::thread_local::fast_local::Key<T>::try_initialize","ax",@progbits
	.p2align	4, 0x90
	.type	std::sys::common::thread_local::fast_local::Key<T>::try_initialize,@function
std::sys::common::thread_local::fast_local::Key<T>::try_initialize:
	.cfi_startproc
	pushq	%r14
	.cfi_def_cfa_offset 16
	pushq	%rbx
	.cfi_def_cfa_offset 24
	pushq	%rax
	.cfi_def_cfa_offset 32
	.cfi_offset %rbx, -24
	.cfi_offset %r14, -16
	testq	%rdi, %rdi
	je	.LBB132_2
	movq	(%rdi), %rax
	movq	8(%rdi), %rbx
	movq	16(%rdi), %r14
	movq	$0, (%rdi)
	cmpq	$1, %rax
	je	.LBB132_3
.LBB132_2:
	callq	*std::sys::unix::rand::hashmap_random_keys@GOTPCREL(%rip)
	movq	%rax, %rbx
	movq	%rdx, %r14
.LBB132_3:
	data16
	leaq	std::hash::random::RandomState::new::KEYS::__getit::__KEY@TLSGD(%rip), %rdi
	data16
	data16
	rex64
	callq	__tls_get_addr@PLT
	movq	$1, (%rax)
	movq	%rbx, 8(%rax)
	movq	%r14, 16(%rax)
	addq	$8, %rsp
	.cfi_def_cfa_offset 24
	popq	%rbx
	.cfi_def_cfa_offset 16
	popq	%r14
	.cfi_def_cfa_offset 8
	retq
.Lfunc_end132:
	.size	std::sys::common::thread_local::fast_local::Key<T>::try_initialize, .Lfunc_end132-std::sys::common::thread_local::fast_local::Key<T>::try_initialize
	.cfi_endproc

	.section	".text.unlikely.std::sync::once_lock::OnceLock<T>::initialize","ax",@progbits
	.p2align	4, 0x90
	.type	std::sync::once_lock::OnceLock<T>::initialize,@function
std::sync::once_lock::OnceLock<T>::initialize:
	.cfi_startproc
	movl	bevy_ecs::entity::hash::_::<impl bevy_reflect::type_info::Typed for bevy_ecs::entity::hash::EntityHash>::type_info::CELL+200(%rip), %eax
	cmpl	$4, %eax
	jne	.LBB133_1
	retq
.LBB133_1:
	subq	$40, %rsp
	.cfi_def_cfa_offset 48
	leaq	bevy_ecs::entity::hash::_::<impl bevy_reflect::type_info::Typed for bevy_ecs::entity::hash::EntityHash>::type_info::CELL(%rip), %rax
	movq	%rax, 24(%rsp)
	leaq	15(%rsp), %rax
	movq	%rax, 32(%rsp)
	leaq	24(%rsp), %rax
	movq	%rax, 16(%rsp)
	leaq	16(%rsp), %rdi
	callq	std::sys_common::once::futex::Once::call
	addq	$40, %rsp
	.cfi_def_cfa_offset 8
	retq
.Lfunc_end133:
	.size	std::sync::once_lock::OnceLock<T>::initialize, .Lfunc_end133-std::sync::once_lock::OnceLock<T>::initialize
	.cfi_endproc

	.section	".text.unlikely.std::sync::once_lock::OnceLock<T>::initialize","ax",@progbits
	.p2align	4, 0x90
	.type	std::sync::once_lock::OnceLock<T>::initialize,@function
std::sync::once_lock::OnceLock<T>::initialize:
	.cfi_startproc
	movl	bevy_ecs::component::_::<impl bevy_reflect::type_info::Typed for bevy_ecs::component::ComponentId>::type_info::CELL+200(%rip), %eax
	cmpl	$4, %eax
	jne	.LBB134_1
	retq
.LBB134_1:
	subq	$40, %rsp
	.cfi_def_cfa_offset 48
	leaq	bevy_ecs::component::_::<impl bevy_reflect::type_info::Typed for bevy_ecs::component::ComponentId>::type_info::CELL(%rip), %rax
	movq	%rax, 24(%rsp)
	leaq	15(%rsp), %rax
	movq	%rax, 32(%rsp)
	leaq	24(%rsp), %rax
	movq	%rax, 16(%rsp)
	leaq	16(%rsp), %rdi
	callq	std::sys_common::once::futex::Once::call
	addq	$40, %rsp
	.cfi_def_cfa_offset 8
	retq
.Lfunc_end134:
	.size	std::sync::once_lock::OnceLock<T>::initialize, .Lfunc_end134-std::sync::once_lock::OnceLock<T>::initialize
	.cfi_endproc

	.section	".text.unlikely.std::sync::once_lock::OnceLock<T>::initialize","ax",@progbits
	.p2align	4, 0x90
	.type	std::sync::once_lock::OnceLock<T>::initialize,@function
std::sync::once_lock::OnceLock<T>::initialize:
	.cfi_startproc
	movq	bevy_ecs::schedule::set::SYSTEM_SET_INTERNER@GOTPCREL(%rip), %rax
	movl	48(%rax), %ecx
	cmpl	$4, %ecx
	jne	.LBB135_1
	retq
.LBB135_1:
	subq	$40, %rsp
	.cfi_def_cfa_offset 48
	movq	%rax, 24(%rsp)
	leaq	15(%rsp), %rax
	movq	%rax, 32(%rsp)
	leaq	24(%rsp), %rax
	movq	%rax, 16(%rsp)
	leaq	16(%rsp), %rdi
	callq	std::sys_common::once::futex::Once::call
	addq	$40, %rsp
	.cfi_def_cfa_offset 8
	retq
.Lfunc_end135:
	.size	std::sync::once_lock::OnceLock<T>::initialize, .Lfunc_end135-std::sync::once_lock::OnceLock<T>::initialize
	.cfi_endproc

	.section	".text.unlikely.std::sync::once_lock::OnceLock<T>::initialize","ax",@progbits
	.p2align	4, 0x90
	.type	std::sync::once_lock::OnceLock<T>::initialize,@function
std::sync::once_lock::OnceLock<T>::initialize:
	.cfi_startproc
	movq	bevy_ecs::schedule::set::SCHEDULE_LABEL_INTERNER@GOTPCREL(%rip), %rax
	movl	48(%rax), %ecx
	cmpl	$4, %ecx
	jne	.LBB136_1
	retq
.LBB136_1:
	subq	$40, %rsp
	.cfi_def_cfa_offset 48
	movq	%rax, 24(%rsp)
	leaq	15(%rsp), %rax
	movq	%rax, 32(%rsp)
	leaq	24(%rsp), %rax
	movq	%rax, 16(%rsp)
	leaq	16(%rsp), %rdi
	callq	std::sys_common::once::futex::Once::call
	addq	$40, %rsp
	.cfi_def_cfa_offset 8
	retq
.Lfunc_end136:
	.size	std::sync::once_lock::OnceLock<T>::initialize, .Lfunc_end136-std::sync::once_lock::OnceLock<T>::initialize
	.cfi_endproc

	.section	".text.unlikely.std::sync::once_lock::OnceLock<T>::initialize","ax",@progbits
	.p2align	4, 0x90
	.type	std::sync::once_lock::OnceLock<T>::initialize,@function
std::sync::once_lock::OnceLock<T>::initialize:
	.cfi_startproc
	movl	bevy_ecs::component::_::<impl bevy_reflect::type_info::Typed for bevy_ecs::component::ComponentTicks>::type_info::CELL+200(%rip), %eax
	cmpl	$4, %eax
	jne	.LBB137_1
	retq
.LBB137_1:
	subq	$40, %rsp
	.cfi_def_cfa_offset 48
	leaq	bevy_ecs::component::_::<impl bevy_reflect::type_info::Typed for bevy_ecs::component::ComponentTicks>::type_info::CELL(%rip), %rax
	movq	%rax, 24(%rsp)
	leaq	15(%rsp), %rax
	movq	%rax, 32(%rsp)
	leaq	24(%rsp), %rax
	movq	%rax, 16(%rsp)
	leaq	16(%rsp), %rdi
	callq	std::sys_common::once::futex::Once::call
	addq	$40, %rsp
	.cfi_def_cfa_offset 8
	retq
.Lfunc_end137:
	.size	std::sync::once_lock::OnceLock<T>::initialize, .Lfunc_end137-std::sync::once_lock::OnceLock<T>::initialize
	.cfi_endproc

	.section	".text.unlikely.std::sync::once_lock::OnceLock<T>::initialize","ax",@progbits
	.p2align	4, 0x90
	.type	std::sync::once_lock::OnceLock<T>::initialize,@function
std::sync::once_lock::OnceLock<T>::initialize:
	.cfi_startproc
	movl	bevy_ecs::entity::_::<impl bevy_reflect::type_info::Typed for bevy_ecs::entity::Entity>::type_info::CELL+200(%rip), %eax
	cmpl	$4, %eax
	jne	.LBB138_1
	retq
.LBB138_1:
	subq	$40, %rsp
	.cfi_def_cfa_offset 48
	leaq	bevy_ecs::entity::_::<impl bevy_reflect::type_info::Typed for bevy_ecs::entity::Entity>::type_info::CELL(%rip), %rax
	movq	%rax, 24(%rsp)
	leaq	15(%rsp), %rax
	movq	%rax, 32(%rsp)
	leaq	24(%rsp), %rax
	movq	%rax, 16(%rsp)
	leaq	16(%rsp), %rdi
	callq	std::sys_common::once::futex::Once::call
	addq	$40, %rsp
	.cfi_def_cfa_offset 8
	retq
.Lfunc_end138:
	.size	std::sync::once_lock::OnceLock<T>::initialize, .Lfunc_end138-std::sync::once_lock::OnceLock<T>::initialize
	.cfi_endproc

	.section	".text.unlikely.std::sync::once_lock::OnceLock<T>::initialize","ax",@progbits
	.p2align	4, 0x90
	.type	std::sync::once_lock::OnceLock<T>::initialize,@function
std::sync::once_lock::OnceLock<T>::initialize:
	.cfi_startproc
	movl	bevy_ecs::component::_::<impl bevy_reflect::type_info::Typed for bevy_ecs::component::Tick>::type_info::CELL+200(%rip), %eax
	cmpl	$4, %eax
	jne	.LBB139_1
	retq
.LBB139_1:
	subq	$40, %rsp
	.cfi_def_cfa_offset 48
	leaq	bevy_ecs::component::_::<impl bevy_reflect::type_info::Typed for bevy_ecs::component::Tick>::type_info::CELL(%rip), %rax
	movq	%rax, 24(%rsp)
	leaq	15(%rsp), %rax
	movq	%rax, 32(%rsp)
	leaq	24(%rsp), %rax
	movq	%rax, 16(%rsp)
	leaq	16(%rsp), %rdi
	callq	std::sys_common::once::futex::Once::call
	addq	$40, %rsp
	.cfi_def_cfa_offset 8
	retq
.Lfunc_end139:
	.size	std::sync::once_lock::OnceLock<T>::initialize, .Lfunc_end139-std::sync::once_lock::OnceLock<T>::initialize
	.cfi_endproc

	.section	".text.unlikely.std::sync::once_lock::OnceLock<T>::initialize","ax",@progbits
	.p2align	4, 0x90
	.type	std::sync::once_lock::OnceLock<T>::initialize,@function
std::sync::once_lock::OnceLock<T>::initialize:
	.cfi_startproc
	movq	bevy_tasks::usages::COMPUTE_TASK_POOL@GOTPCREL(%rip), %rax
	movl	(%rax), %ecx
	cmpl	$4, %ecx
	jne	.LBB140_1
	retq
.LBB140_1:
	subq	$40, %rsp
	.cfi_def_cfa_offset 48
	addq	$4, %rax
	movq	%rax, 24(%rsp)
	leaq	15(%rsp), %rax
	movq	%rax, 32(%rsp)
	leaq	24(%rsp), %rax
	movq	%rax, 16(%rsp)
	leaq	16(%rsp), %rdi
	callq	std::sys_common::once::futex::Once::call
	addq	$40, %rsp
	.cfi_def_cfa_offset 8
	retq
.Lfunc_end140:
	.size	std::sync::once_lock::OnceLock<T>::initialize, .Lfunc_end140-std::sync::once_lock::OnceLock<T>::initialize
	.cfi_endproc

	.section	".text.<T as serde::de::Expected>::fmt","ax",@progbits
	.p2align	4, 0x90
	.type	<T as serde::de::Expected>::fmt,@function
<T as serde::de::Expected>::fmt:
	.cfi_startproc
	jmpq	*<serde::de::impls::<impl serde::de::Deserialize for u64>::deserialize::PrimitiveVisitor as serde::de::Visitor>::expecting@GOTPCREL(%rip)
.Lfunc_end141:
