	.file	"message_writer.80f54a0bde3d2523-cgu.0"
	.section	.text.unlikely.alloc::raw_vec::finish_grow,"ax",@progbits
	.p2align	4
	.type	alloc::raw_vec::finish_grow,@function
alloc::raw_vec::finish_grow:
	.cfi_startproc
	pushq	%r15
	.cfi_def_cfa_offset 16
	pushq	%r14
	.cfi_def_cfa_offset 24
	pushq	%rbx
	.cfi_def_cfa_offset 32
	.cfi_offset %rbx, -32
	.cfi_offset %r14, -24
	.cfi_offset %r15, -16
	movq	%rdx, %rbx
	movq	%rsi, %r15
	movq	%rdi, %r14
	cmpq	$0, 8(%rcx)
	je	.LBB0_3
	movq	16(%rcx), %rsi
	testq	%rsi, %rsi
	je	.LBB0_3
	movq	(%rcx), %rdi
	movq	%r15, %rdx
	movq	%rbx, %rcx
	callq	*__rustc::__rust_realloc@GOTPCREL(%rip)
	jmp	.LBB0_7
.LBB0_3:
	testq	%rbx, %rbx
	je	.LBB0_4
	callq	*__rustc::__rust_no_alloc_shim_is_unstable_v2@GOTPCREL(%rip)
	movq	%rbx, %rdi
	movq	%r15, %rsi
	callq	*__rustc::__rust_alloc@GOTPCREL(%rip)
	jmp	.LBB0_7
.LBB0_4:
	movq	%r15, %rax
.LBB0_7:
	xorl	%ecx, %ecx
	testq	%rax, %rax
	cmovneq	%rax, %r15
	sete	%cl
	movq	%r15, 8(%r14)
	movq	%rbx, 16(%r14)
	movq	%rcx, (%r14)
	popq	%rbx
	.cfi_def_cfa_offset 24
	popq	%r14
	.cfi_def_cfa_offset 16
	popq	%r15
	.cfi_def_cfa_offset 8
	retq
.Lfunc_end0:
	.size	alloc::raw_vec::finish_grow, .Lfunc_end0-alloc::raw_vec::finish_grow
	.cfi_endproc

	.section	".text.alloc::raw_vec::RawVec<T,A>::grow_one","ax",@progbits
	.globl	alloc::raw_vec::RawVec<T,A>::grow_one
	.p2align	4
	.type	alloc::raw_vec::RawVec<T,A>::grow_one,@function
alloc::raw_vec::RawVec<T,A>::grow_one:
	.cfi_startproc
	pushq	%r14
	.cfi_def_cfa_offset 16
	pushq	%rbx
	.cfi_def_cfa_offset 24
	subq	$56, %rsp
	.cfi_def_cfa_offset 80
	.cfi_offset %rbx, -24
	.cfi_offset %r14, -16
	movq	(%rdi), %rax
	leaq	(%rax,%rax), %rcx
	testq	%rax, %rax
	movl	$1, %esi
	cmovneq	%rcx, %rsi
	cmpq	$5, %rsi
	movl	$4, %r14d
	cmovaeq	%rsi, %r14
	movq	%r14, %rdx
	shlq	$4, %rdx
	shrq	$60, %rsi
	setne	%cl
	movabsq	$9223372036854775800, %rsi
	cmpq	%rsi, %rdx
	seta	%sil
	orb	%cl, %sil
	je	.LBB1_2
	xorl	%edi, %edi
	callq	*alloc::raw_vec::handle_error@GOTPCREL(%rip)
.LBB1_2:
	movq	%rdi, %rbx
	testq	%rax, %rax
	jne	.LBB1_4
	xorl	%eax, %eax
	jmp	.LBB1_5
.LBB1_4:
	movq	8(%rbx), %rcx
	shlq	$4, %rax
	movq	%rcx, 32(%rsp)
	movq	%rax, 48(%rsp)
	movl	$8, %eax
.LBB1_5:
	movq	%rax, 40(%rsp)
	leaq	8(%rsp), %rdi
	leaq	32(%rsp), %rcx
	movl	$8, %esi
	callq	alloc::raw_vec::finish_grow
	cmpl	$1, 8(%rsp)
	je	.LBB1_6
	movq	16(%rsp), %rax
	movq	%rax, 8(%rbx)
	movq	%r14, (%rbx)
	addq	$56, %rsp
	.cfi_def_cfa_offset 24
	popq	%rbx
	.cfi_def_cfa_offset 16
	popq	%r14
	.cfi_def_cfa_offset 8
	retq
.LBB1_6:
	.cfi_def_cfa_offset 80
	movq	16(%rsp), %rdi
	movq	24(%rsp), %rsi
	callq	*alloc::raw_vec::handle_error@GOTPCREL(%rip)
.Lfunc_end1:
	.size	alloc::raw_vec::RawVec<T,A>::grow_one, .Lfunc_end1-alloc::raw_vec::RawVec<T,A>::grow_one
	.cfi_endproc

	.section	.text.message_writer,"ax",@progbits
	.globl	message_writer
	.p2align	4
	.type	message_writer,@function
message_writer:
	.cfi_startproc
	pushq	%r15
	.cfi_def_cfa_offset 16
	pushq	%r14
	.cfi_def_cfa_offset 24
	pushq	%rbx
	.cfi_def_cfa_offset 32
	subq	$16, %rsp
	.cfi_def_cfa_offset 48
	.cfi_offset %rbx, -32
	.cfi_offset %r14, -24
	.cfi_offset %r15, -16
	movl	28(%rdi), %eax
	movq	16(%rdi), %rcx
	movl	%eax, (%rcx)
	movq	(%rdi), %rbx
	movq	48(%rbx), %r15
	movq	64(%rbx), %r14
	cmpq	32(%rbx), %r15
	jne	.LBB2_2
	leaq	32(%rbx), %rdi
	callq	*alloc::raw_vec::RawVec<T,A>::grow_one@GOTPCREL(%rip)
.LBB2_2:
	movq	40(%rbx), %rax
	movq	%r15, %rcx
	shlq	$4, %rcx
	movq	%r14, (%rax,%rcx)
	movl	$0, 8(%rax,%rcx)
	incq	%r15
	movq	%r15, 48(%rbx)
	incq	64(%rbx)
	movq	%r14, 8(%rsp)
	leaq	8(%rsp), %rax
	#APP
	#NO_APP
	addq	$16, %rsp
	.cfi_def_cfa_offset 32
	popq	%rbx
	.cfi_def_cfa_offset 24
	popq	%r14
	.cfi_def_cfa_offset 16
	popq	%r15
	.cfi_def_cfa_offset 8
	retq
.Lfunc_end2:
	.size	message_writer, .Lfunc_end2-message_writer
	.cfi_endproc

	.ident	"rustc version 1.92.0-nightly (2cb4e7dce 2025-10-04)"
	.section	".note.GNU-stack","",@progbits
